
VRS-zadanie-cv9.elf:     file format elf32-littlearm

Sections:
Idx Name          Size      VMA       LMA       File off  Algn
  0 .isr_vector   00000188  08000000  08000000  00010000  2**0
                  CONTENTS, ALLOC, LOAD, READONLY, DATA
  1 .text         000029cc  08000188  08000188  00010188  2**2
                  CONTENTS, ALLOC, LOAD, READONLY, CODE
  2 .rodata       00000084  08002b54  08002b54  00012b54  2**2
                  CONTENTS, ALLOC, LOAD, READONLY, DATA
  3 .ARM.extab    00000000  08002bd8  08002bd8  00020008  2**0
                  CONTENTS
  4 .ARM          00000000  08002bd8  08002bd8  00020008  2**0
                  CONTENTS
  5 .preinit_array 00000000  08002bd8  08002bd8  00020008  2**0
                  CONTENTS, ALLOC, LOAD, DATA
  6 .init_array   00000004  08002bd8  08002bd8  00012bd8  2**2
                  CONTENTS, ALLOC, LOAD, DATA
  7 .fini_array   00000004  08002bdc  08002bdc  00012bdc  2**2
                  CONTENTS, ALLOC, LOAD, DATA
  8 .data         00000008  20000000  08002be0  00020000  2**2
                  CONTENTS, ALLOC, LOAD, DATA
  9 .ccmram       00000000  10000000  10000000  00020008  2**0
                  CONTENTS
 10 .bss          000000b4  20000008  20000008  00020008  2**3
                  ALLOC
 11 ._user_heap_stack 00000604  200000bc  200000bc  00020008  2**0
                  ALLOC
 12 .ARM.attributes 00000030  00000000  00000000  00020008  2**0
                  CONTENTS, READONLY
 13 .debug_info   00008b0c  00000000  00000000  00020038  2**0
                  CONTENTS, READONLY, DEBUGGING, OCTETS
 14 .debug_abbrev 00001bdf  00000000  00000000  00028b44  2**0
                  CONTENTS, READONLY, DEBUGGING, OCTETS
 15 .debug_aranges 000007f0  00000000  00000000  0002a728  2**3
                  CONTENTS, READONLY, DEBUGGING, OCTETS
 16 .debug_ranges 00000718  00000000  00000000  0002af18  2**3
                  CONTENTS, READONLY, DEBUGGING, OCTETS
 17 .debug_macro  00016fc2  00000000  00000000  0002b630  2**0
                  CONTENTS, READONLY, DEBUGGING, OCTETS
 18 .debug_line   00006bec  00000000  00000000  000425f2  2**0
                  CONTENTS, READONLY, DEBUGGING, OCTETS
 19 .debug_str    00079b31  00000000  00000000  000491de  2**0
                  CONTENTS, READONLY, DEBUGGING, OCTETS
 20 .comment      00000053  00000000  00000000  000c2d0f  2**0
                  CONTENTS, READONLY
 21 .debug_frame  00001fd0  00000000  00000000  000c2d64  2**2
                  CONTENTS, READONLY, DEBUGGING, OCTETS

Disassembly of section .text:

08000188 <__do_global_dtors_aux>:
 8000188:	b510      	push	{r4, lr}
 800018a:	4c05      	ldr	r4, [pc, #20]	; (80001a0 <__do_global_dtors_aux+0x18>)
 800018c:	7823      	ldrb	r3, [r4, #0]
 800018e:	b933      	cbnz	r3, 800019e <__do_global_dtors_aux+0x16>
 8000190:	4b04      	ldr	r3, [pc, #16]	; (80001a4 <__do_global_dtors_aux+0x1c>)
 8000192:	b113      	cbz	r3, 800019a <__do_global_dtors_aux+0x12>
 8000194:	4804      	ldr	r0, [pc, #16]	; (80001a8 <__do_global_dtors_aux+0x20>)
 8000196:	f3af 8000 	nop.w
 800019a:	2301      	movs	r3, #1
 800019c:	7023      	strb	r3, [r4, #0]
 800019e:	bd10      	pop	{r4, pc}
 80001a0:	20000008 	.word	0x20000008
 80001a4:	00000000 	.word	0x00000000
 80001a8:	08002b3c 	.word	0x08002b3c

080001ac <frame_dummy>:
 80001ac:	b508      	push	{r3, lr}
 80001ae:	4b03      	ldr	r3, [pc, #12]	; (80001bc <frame_dummy+0x10>)
 80001b0:	b11b      	cbz	r3, 80001ba <frame_dummy+0xe>
 80001b2:	4903      	ldr	r1, [pc, #12]	; (80001c0 <frame_dummy+0x14>)
 80001b4:	4803      	ldr	r0, [pc, #12]	; (80001c4 <frame_dummy+0x18>)
 80001b6:	f3af 8000 	nop.w
 80001ba:	bd08      	pop	{r3, pc}
 80001bc:	00000000 	.word	0x00000000
 80001c0:	2000000c 	.word	0x2000000c
 80001c4:	08002b3c 	.word	0x08002b3c

080001c8 <strlen>:
 80001c8:	4603      	mov	r3, r0
 80001ca:	f813 2b01 	ldrb.w	r2, [r3], #1
 80001ce:	2a00      	cmp	r2, #0
 80001d0:	d1fb      	bne.n	80001ca <strlen+0x2>
 80001d2:	1a18      	subs	r0, r3, r0
 80001d4:	3801      	subs	r0, #1
 80001d6:	4770      	bx	lr

080001d8 <LL_GPIO_SetOutputPin>:
  *         @arg @ref LL_GPIO_PIN_15
  *         @arg @ref LL_GPIO_PIN_ALL
  * @retval None
  */
__STATIC_INLINE void LL_GPIO_SetOutputPin(GPIO_TypeDef *GPIOx, uint32_t PinMask)
{
 80001d8:	b480      	push	{r7}
 80001da:	b083      	sub	sp, #12
 80001dc:	af00      	add	r7, sp, #0
 80001de:	6078      	str	r0, [r7, #4]
 80001e0:	6039      	str	r1, [r7, #0]
  WRITE_REG(GPIOx->BSRR, PinMask);
 80001e2:	687b      	ldr	r3, [r7, #4]
 80001e4:	683a      	ldr	r2, [r7, #0]
 80001e6:	619a      	str	r2, [r3, #24]
}
 80001e8:	bf00      	nop
 80001ea:	370c      	adds	r7, #12
 80001ec:	46bd      	mov	sp, r7
 80001ee:	f85d 7b04 	ldr.w	r7, [sp], #4
 80001f2:	4770      	bx	lr

080001f4 <LL_GPIO_ResetOutputPin>:
  *         @arg @ref LL_GPIO_PIN_15
  *         @arg @ref LL_GPIO_PIN_ALL
  * @retval None
  */
__STATIC_INLINE void LL_GPIO_ResetOutputPin(GPIO_TypeDef *GPIOx, uint32_t PinMask)
{
 80001f4:	b480      	push	{r7}
 80001f6:	b083      	sub	sp, #12
 80001f8:	af00      	add	r7, sp, #0
 80001fa:	6078      	str	r0, [r7, #4]
 80001fc:	6039      	str	r1, [r7, #0]
  WRITE_REG(GPIOx->BRR, PinMask);
 80001fe:	687b      	ldr	r3, [r7, #4]
 8000200:	683a      	ldr	r2, [r7, #0]
 8000202:	629a      	str	r2, [r3, #40]	; 0x28
}
 8000204:	bf00      	nop
 8000206:	370c      	adds	r7, #12
 8000208:	46bd      	mov	sp, r7
 800020a:	f85d 7b04 	ldr.w	r7, [sp], #4
 800020e:	4770      	bx	lr

08000210 <resetSegments>:
void setDigit(uint8_t pos);


/*Reset (turn-off) all the segments of display*/
void resetSegments(void)
{
 8000210:	b580      	push	{r7, lr}
 8000212:	af00      	add	r7, sp, #0
	LL_GPIO_SetOutputPin(GPIOA, LL_GPIO_PIN_11);
 8000214:	f44f 6100 	mov.w	r1, #2048	; 0x800
 8000218:	f04f 4090 	mov.w	r0, #1207959552	; 0x48000000
 800021c:	f7ff ffdc 	bl	80001d8 <LL_GPIO_SetOutputPin>
	LL_GPIO_SetOutputPin(GPIOA, LL_GPIO_PIN_8);
 8000220:	f44f 7180 	mov.w	r1, #256	; 0x100
 8000224:	f04f 4090 	mov.w	r0, #1207959552	; 0x48000000
 8000228:	f7ff ffd6 	bl	80001d8 <LL_GPIO_SetOutputPin>
	LL_GPIO_SetOutputPin(GPIOB, LL_GPIO_PIN_1);
 800022c:	2102      	movs	r1, #2
 800022e:	480e      	ldr	r0, [pc, #56]	; (8000268 <resetSegments+0x58>)
 8000230:	f7ff ffd2 	bl	80001d8 <LL_GPIO_SetOutputPin>
	LL_GPIO_SetOutputPin(GPIOB, LL_GPIO_PIN_5);
 8000234:	2120      	movs	r1, #32
 8000236:	480c      	ldr	r0, [pc, #48]	; (8000268 <resetSegments+0x58>)
 8000238:	f7ff ffce 	bl	80001d8 <LL_GPIO_SetOutputPin>
	LL_GPIO_SetOutputPin(GPIOB, LL_GPIO_PIN_4);
 800023c:	2110      	movs	r1, #16
 800023e:	480a      	ldr	r0, [pc, #40]	; (8000268 <resetSegments+0x58>)
 8000240:	f7ff ffca 	bl	80001d8 <LL_GPIO_SetOutputPin>
	LL_GPIO_SetOutputPin(GPIOA, LL_GPIO_PIN_0);
 8000244:	2101      	movs	r1, #1
 8000246:	f04f 4090 	mov.w	r0, #1207959552	; 0x48000000
 800024a:	f7ff ffc5 	bl	80001d8 <LL_GPIO_SetOutputPin>
	LL_GPIO_SetOutputPin(GPIOA, LL_GPIO_PIN_1);
 800024e:	2102      	movs	r1, #2
 8000250:	f04f 4090 	mov.w	r0, #1207959552	; 0x48000000
 8000254:	f7ff ffc0 	bl	80001d8 <LL_GPIO_SetOutputPin>
	LL_GPIO_SetOutputPin(GPIOA, LL_GPIO_PIN_3);
 8000258:	2108      	movs	r1, #8
 800025a:	f04f 4090 	mov.w	r0, #1207959552	; 0x48000000
 800025e:	f7ff ffbb 	bl	80001d8 <LL_GPIO_SetOutputPin>
}
 8000262:	bf00      	nop
 8000264:	bd80      	pop	{r7, pc}
 8000266:	bf00      	nop
 8000268:	48000400 	.word	0x48000400

0800026c <setSegments>:

/*Set (turn-on) all the segments of display*/
void setSegments(void)
{
 800026c:	b580      	push	{r7, lr}
 800026e:	af00      	add	r7, sp, #0
	LL_GPIO_ResetOutputPin(GPIOA, LL_GPIO_PIN_11);
 8000270:	f44f 6100 	mov.w	r1, #2048	; 0x800
 8000274:	f04f 4090 	mov.w	r0, #1207959552	; 0x48000000
 8000278:	f7ff ffbc 	bl	80001f4 <LL_GPIO_ResetOutputPin>
	LL_GPIO_ResetOutputPin(GPIOA, LL_GPIO_PIN_8);
 800027c:	f44f 7180 	mov.w	r1, #256	; 0x100
 8000280:	f04f 4090 	mov.w	r0, #1207959552	; 0x48000000
 8000284:	f7ff ffb6 	bl	80001f4 <LL_GPIO_ResetOutputPin>
	LL_GPIO_ResetOutputPin(GPIOB, LL_GPIO_PIN_1);
 8000288:	2102      	movs	r1, #2
 800028a:	480e      	ldr	r0, [pc, #56]	; (80002c4 <setSegments+0x58>)
 800028c:	f7ff ffb2 	bl	80001f4 <LL_GPIO_ResetOutputPin>
	LL_GPIO_ResetOutputPin(GPIOB, LL_GPIO_PIN_5);
 8000290:	2120      	movs	r1, #32
 8000292:	480c      	ldr	r0, [pc, #48]	; (80002c4 <setSegments+0x58>)
 8000294:	f7ff ffae 	bl	80001f4 <LL_GPIO_ResetOutputPin>
	LL_GPIO_ResetOutputPin(GPIOB, LL_GPIO_PIN_4);
 8000298:	2110      	movs	r1, #16
 800029a:	480a      	ldr	r0, [pc, #40]	; (80002c4 <setSegments+0x58>)
 800029c:	f7ff ffaa 	bl	80001f4 <LL_GPIO_ResetOutputPin>
	LL_GPIO_ResetOutputPin(GPIOA, LL_GPIO_PIN_0);
 80002a0:	2101      	movs	r1, #1
 80002a2:	f04f 4090 	mov.w	r0, #1207959552	; 0x48000000
 80002a6:	f7ff ffa5 	bl	80001f4 <LL_GPIO_ResetOutputPin>
	LL_GPIO_ResetOutputPin(GPIOA, LL_GPIO_PIN_1);
 80002aa:	2102      	movs	r1, #2
 80002ac:	f04f 4090 	mov.w	r0, #1207959552	; 0x48000000
 80002b0:	f7ff ffa0 	bl	80001f4 <LL_GPIO_ResetOutputPin>
	LL_GPIO_ResetOutputPin(GPIOA, LL_GPIO_PIN_3);
 80002b4:	2108      	movs	r1, #8
 80002b6:	f04f 4090 	mov.w	r0, #1207959552	; 0x48000000
 80002ba:	f7ff ff9b 	bl	80001f4 <LL_GPIO_ResetOutputPin>
}
 80002be:	bf00      	nop
 80002c0:	bd80      	pop	{r7, pc}
 80002c2:	bf00      	nop
 80002c4:	48000400 	.word	0x48000400

080002c8 <resetDigits>:

/* Reset (turn-off) all digits*/
void resetDigits(void)
{
 80002c8:	b580      	push	{r7, lr}
 80002ca:	af00      	add	r7, sp, #0
	LL_GPIO_ResetOutputPin(GPIOA, LL_GPIO_PIN_2);
 80002cc:	2104      	movs	r1, #4
 80002ce:	f04f 4090 	mov.w	r0, #1207959552	; 0x48000000
 80002d2:	f7ff ff8f 	bl	80001f4 <LL_GPIO_ResetOutputPin>
	//LL_GPIO_ResetOutputPin(GPIOA, LL_GPIO_PIN_5);
	LL_GPIO_ResetOutputPin(GPIOB, LL_GPIO_PIN_0);
 80002d6:	2101      	movs	r1, #1
 80002d8:	480a      	ldr	r0, [pc, #40]	; (8000304 <resetDigits+0x3c>)
 80002da:	f7ff ff8b 	bl	80001f4 <LL_GPIO_ResetOutputPin>
	LL_GPIO_ResetOutputPin(GPIOA, LL_GPIO_PIN_4);
 80002de:	2110      	movs	r1, #16
 80002e0:	f04f 4090 	mov.w	r0, #1207959552	; 0x48000000
 80002e4:	f7ff ff86 	bl	80001f4 <LL_GPIO_ResetOutputPin>
	//LL_GPIO_ResetOutputPin(GPIOA, LL_GPIO_PIN_6);
	LL_GPIO_ResetOutputPin(GPIOA, LL_GPIO_PIN_12);
 80002e8:	f44f 5180 	mov.w	r1, #4096	; 0x1000
 80002ec:	f04f 4090 	mov.w	r0, #1207959552	; 0x48000000
 80002f0:	f7ff ff80 	bl	80001f4 <LL_GPIO_ResetOutputPin>
	LL_GPIO_ResetOutputPin(GPIOA, LL_GPIO_PIN_7);
 80002f4:	2180      	movs	r1, #128	; 0x80
 80002f6:	f04f 4090 	mov.w	r0, #1207959552	; 0x48000000
 80002fa:	f7ff ff7b 	bl	80001f4 <LL_GPIO_ResetOutputPin>
}
 80002fe:	bf00      	nop
 8000300:	bd80      	pop	{r7, pc}
 8000302:	bf00      	nop
 8000304:	48000400 	.word	0x48000400

08000308 <setDigits>:

/* Reset (turn-on) all digits*/
void setDigits(void)
{
 8000308:	b580      	push	{r7, lr}
 800030a:	af00      	add	r7, sp, #0
	DIGIT_1_ON;
 800030c:	2101      	movs	r1, #1
 800030e:	480d      	ldr	r0, [pc, #52]	; (8000344 <setDigits+0x3c>)
 8000310:	f7ff ff62 	bl	80001d8 <LL_GPIO_SetOutputPin>
	DIGIT_2_ON;
 8000314:	2110      	movs	r1, #16
 8000316:	f04f 4090 	mov.w	r0, #1207959552	; 0x48000000
 800031a:	f7ff ff5d 	bl	80001d8 <LL_GPIO_SetOutputPin>
	DIGIT_3_ON;
 800031e:	f44f 5180 	mov.w	r1, #4096	; 0x1000
 8000322:	f04f 4090 	mov.w	r0, #1207959552	; 0x48000000
 8000326:	f7ff ff57 	bl	80001d8 <LL_GPIO_SetOutputPin>
	DIGIT_4_ON;
 800032a:	2104      	movs	r1, #4
 800032c:	f04f 4090 	mov.w	r0, #1207959552	; 0x48000000
 8000330:	f7ff ff52 	bl	80001d8 <LL_GPIO_SetOutputPin>
	DIGIT_TIME_ON;
 8000334:	2180      	movs	r1, #128	; 0x80
 8000336:	f04f 4090 	mov.w	r0, #1207959552	; 0x48000000
 800033a:	f7ff ff4d 	bl	80001d8 <LL_GPIO_SetOutputPin>
}
 800033e:	bf00      	nop
 8000340:	bd80      	pop	{r7, pc}
 8000342:	bf00      	nop
 8000344:	48000400 	.word	0x48000400

08000348 <set_sign>:

void set_sign(char sign){
 8000348:	b580      	push	{r7, lr}
 800034a:	b082      	sub	sp, #8
 800034c:	af00      	add	r7, sp, #0
 800034e:	4603      	mov	r3, r0
 8000350:	71fb      	strb	r3, [r7, #7]

	if(seven_seg_digits_decode_abcdefg[sign - '0'] & (1<<6))
 8000352:	79fb      	ldrb	r3, [r7, #7]
 8000354:	3b30      	subs	r3, #48	; 0x30
 8000356:	4a2e      	ldr	r2, [pc, #184]	; (8000410 <set_sign+0xc8>)
 8000358:	5cd3      	ldrb	r3, [r2, r3]
 800035a:	f003 0340 	and.w	r3, r3, #64	; 0x40
 800035e:	2b00      	cmp	r3, #0
 8000360:	d004      	beq.n	800036c <set_sign+0x24>
		LL_GPIO_ResetOutputPin(SEGMENTA_PORT, SEGMENTA_PIN);
 8000362:	2102      	movs	r1, #2
 8000364:	f04f 4090 	mov.w	r0, #1207959552	; 0x48000000
 8000368:	f7ff ff44 	bl	80001f4 <LL_GPIO_ResetOutputPin>

	if(seven_seg_digits_decode_abcdefg[sign - '0'] & (1<<5))
 800036c:	79fb      	ldrb	r3, [r7, #7]
 800036e:	3b30      	subs	r3, #48	; 0x30
 8000370:	4a27      	ldr	r2, [pc, #156]	; (8000410 <set_sign+0xc8>)
 8000372:	5cd3      	ldrb	r3, [r2, r3]
 8000374:	f003 0320 	and.w	r3, r3, #32
 8000378:	2b00      	cmp	r3, #0
 800037a:	d004      	beq.n	8000386 <set_sign+0x3e>
		LL_GPIO_ResetOutputPin(SEGMENTB_PORT, SEGMENTB_PIN);
 800037c:	2101      	movs	r1, #1
 800037e:	f04f 4090 	mov.w	r0, #1207959552	; 0x48000000
 8000382:	f7ff ff37 	bl	80001f4 <LL_GPIO_ResetOutputPin>

	if(seven_seg_digits_decode_abcdefg[sign - '0'] & (1<<4))
 8000386:	79fb      	ldrb	r3, [r7, #7]
 8000388:	3b30      	subs	r3, #48	; 0x30
 800038a:	4a21      	ldr	r2, [pc, #132]	; (8000410 <set_sign+0xc8>)
 800038c:	5cd3      	ldrb	r3, [r2, r3]
 800038e:	f003 0310 	and.w	r3, r3, #16
 8000392:	2b00      	cmp	r3, #0
 8000394:	d005      	beq.n	80003a2 <set_sign+0x5a>
		LL_GPIO_ResetOutputPin(SEGMENTC_PORT, SEGMENTC_PIN);
 8000396:	f44f 7180 	mov.w	r1, #256	; 0x100
 800039a:	f04f 4090 	mov.w	r0, #1207959552	; 0x48000000
 800039e:	f7ff ff29 	bl	80001f4 <LL_GPIO_ResetOutputPin>

	if(seven_seg_digits_decode_abcdefg[sign - '0'] & (1<<3))
 80003a2:	79fb      	ldrb	r3, [r7, #7]
 80003a4:	3b30      	subs	r3, #48	; 0x30
 80003a6:	4a1a      	ldr	r2, [pc, #104]	; (8000410 <set_sign+0xc8>)
 80003a8:	5cd3      	ldrb	r3, [r2, r3]
 80003aa:	f003 0308 	and.w	r3, r3, #8
 80003ae:	2b00      	cmp	r3, #0
 80003b0:	d003      	beq.n	80003ba <set_sign+0x72>
		LL_GPIO_ResetOutputPin(SEGMENTD_PORT, SEGMENTD_PIN);
 80003b2:	2120      	movs	r1, #32
 80003b4:	4817      	ldr	r0, [pc, #92]	; (8000414 <set_sign+0xcc>)
 80003b6:	f7ff ff1d 	bl	80001f4 <LL_GPIO_ResetOutputPin>

	if(seven_seg_digits_decode_abcdefg[sign - '0'] & (1<<2))
 80003ba:	79fb      	ldrb	r3, [r7, #7]
 80003bc:	3b30      	subs	r3, #48	; 0x30
 80003be:	4a14      	ldr	r2, [pc, #80]	; (8000410 <set_sign+0xc8>)
 80003c0:	5cd3      	ldrb	r3, [r2, r3]
 80003c2:	f003 0304 	and.w	r3, r3, #4
 80003c6:	2b00      	cmp	r3, #0
 80003c8:	d005      	beq.n	80003d6 <set_sign+0x8e>
		LL_GPIO_ResetOutputPin(SEGMENTE_PORT, SEGMENTE_PIN);
 80003ca:	f44f 6100 	mov.w	r1, #2048	; 0x800
 80003ce:	f04f 4090 	mov.w	r0, #1207959552	; 0x48000000
 80003d2:	f7ff ff0f 	bl	80001f4 <LL_GPIO_ResetOutputPin>

	if(seven_seg_digits_decode_abcdefg[sign - '0'] & (1<<1))
 80003d6:	79fb      	ldrb	r3, [r7, #7]
 80003d8:	3b30      	subs	r3, #48	; 0x30
 80003da:	4a0d      	ldr	r2, [pc, #52]	; (8000410 <set_sign+0xc8>)
 80003dc:	5cd3      	ldrb	r3, [r2, r3]
 80003de:	f003 0302 	and.w	r3, r3, #2
 80003e2:	2b00      	cmp	r3, #0
 80003e4:	d004      	beq.n	80003f0 <set_sign+0xa8>
		LL_GPIO_ResetOutputPin(SEGMENTF_PORT, SEGMENTF_PIN);
 80003e6:	2108      	movs	r1, #8
 80003e8:	f04f 4090 	mov.w	r0, #1207959552	; 0x48000000
 80003ec:	f7ff ff02 	bl	80001f4 <LL_GPIO_ResetOutputPin>

	if(seven_seg_digits_decode_abcdefg[sign - '0'] & (1<<0))
 80003f0:	79fb      	ldrb	r3, [r7, #7]
 80003f2:	3b30      	subs	r3, #48	; 0x30
 80003f4:	4a06      	ldr	r2, [pc, #24]	; (8000410 <set_sign+0xc8>)
 80003f6:	5cd3      	ldrb	r3, [r2, r3]
 80003f8:	f003 0301 	and.w	r3, r3, #1
 80003fc:	2b00      	cmp	r3, #0
 80003fe:	d003      	beq.n	8000408 <set_sign+0xc0>
		LL_GPIO_ResetOutputPin(SEGMENTG_PORT, SEGMENTG_PIN);
 8000400:	2110      	movs	r1, #16
 8000402:	4804      	ldr	r0, [pc, #16]	; (8000414 <set_sign+0xcc>)
 8000404:	f7ff fef6 	bl	80001f4 <LL_GPIO_ResetOutputPin>

}
 8000408:	bf00      	nop
 800040a:	3708      	adds	r7, #8
 800040c:	46bd      	mov	sp, r7
 800040e:	bd80      	pop	{r7, pc}
 8000410:	08002b74 	.word	0x08002b74
 8000414:	48000400 	.word	0x48000400

08000418 <setDigit>:

/*
 * Turns required digit ON
 */
void setDigit(uint8_t pos)
{
 8000418:	b580      	push	{r7, lr}
 800041a:	b082      	sub	sp, #8
 800041c:	af00      	add	r7, sp, #0
 800041e:	4603      	mov	r3, r0
 8000420:	71fb      	strb	r3, [r7, #7]
	switch(pos)
 8000422:	79fb      	ldrb	r3, [r7, #7]
 8000424:	2b03      	cmp	r3, #3
 8000426:	d823      	bhi.n	8000470 <setDigit+0x58>
 8000428:	a201      	add	r2, pc, #4	; (adr r2, 8000430 <setDigit+0x18>)
 800042a:	f852 f023 	ldr.w	pc, [r2, r3, lsl #2]
 800042e:	bf00      	nop
 8000430:	08000441 	.word	0x08000441
 8000434:	0800044d 	.word	0x0800044d
 8000438:	0800045b 	.word	0x0800045b
 800043c:	08000467 	.word	0x08000467
	{
	case 0:
		DIGIT_4_ON;
 8000440:	2104      	movs	r1, #4
 8000442:	f04f 4090 	mov.w	r0, #1207959552	; 0x48000000
 8000446:	f7ff fec7 	bl	80001d8 <LL_GPIO_SetOutputPin>
		break;
 800044a:	e011      	b.n	8000470 <setDigit+0x58>
	case 1:
		DIGIT_3_ON;
 800044c:	f44f 5180 	mov.w	r1, #4096	; 0x1000
 8000450:	f04f 4090 	mov.w	r0, #1207959552	; 0x48000000
 8000454:	f7ff fec0 	bl	80001d8 <LL_GPIO_SetOutputPin>
		break;
 8000458:	e00a      	b.n	8000470 <setDigit+0x58>
	case 2:
		DIGIT_2_ON;
 800045a:	2110      	movs	r1, #16
 800045c:	f04f 4090 	mov.w	r0, #1207959552	; 0x48000000
 8000460:	f7ff feba 	bl	80001d8 <LL_GPIO_SetOutputPin>
		break;
 8000464:	e004      	b.n	8000470 <setDigit+0x58>
	case 3:
		DIGIT_1_ON;
 8000466:	2101      	movs	r1, #1
 8000468:	4803      	ldr	r0, [pc, #12]	; (8000478 <setDigit+0x60>)
 800046a:	f7ff feb5 	bl	80001d8 <LL_GPIO_SetOutputPin>
		break;
 800046e:	bf00      	nop
	}
}
 8000470:	bf00      	nop
 8000472:	3708      	adds	r7, #8
 8000474:	46bd      	mov	sp, r7
 8000476:	bd80      	pop	{r7, pc}
 8000478:	48000400 	.word	0x48000400

0800047c <display_sign>:
void display_sign(char sign_1,char sign_2, char sign_3,char sign_4)
{
 800047c:	b490      	push	{r4, r7}
 800047e:	b082      	sub	sp, #8
 8000480:	af00      	add	r7, sp, #0
 8000482:	4604      	mov	r4, r0
 8000484:	4608      	mov	r0, r1
 8000486:	4611      	mov	r1, r2
 8000488:	461a      	mov	r2, r3
 800048a:	4623      	mov	r3, r4
 800048c:	71fb      	strb	r3, [r7, #7]
 800048e:	4603      	mov	r3, r0
 8000490:	71bb      	strb	r3, [r7, #6]
 8000492:	460b      	mov	r3, r1
 8000494:	717b      	strb	r3, [r7, #5]
 8000496:	4613      	mov	r3, r2
 8000498:	713b      	strb	r3, [r7, #4]
	Display_sign[0] = sign_1;
 800049a:	4a08      	ldr	r2, [pc, #32]	; (80004bc <display_sign+0x40>)
 800049c:	79fb      	ldrb	r3, [r7, #7]
 800049e:	7013      	strb	r3, [r2, #0]
	Display_sign[1] = sign_2;
 80004a0:	4a06      	ldr	r2, [pc, #24]	; (80004bc <display_sign+0x40>)
 80004a2:	79bb      	ldrb	r3, [r7, #6]
 80004a4:	7053      	strb	r3, [r2, #1]
	Display_sign[2] = sign_3;
 80004a6:	4a05      	ldr	r2, [pc, #20]	; (80004bc <display_sign+0x40>)
 80004a8:	797b      	ldrb	r3, [r7, #5]
 80004aa:	7093      	strb	r3, [r2, #2]
	Display_sign[3] = sign_4;
 80004ac:	4a03      	ldr	r2, [pc, #12]	; (80004bc <display_sign+0x40>)
 80004ae:	793b      	ldrb	r3, [r7, #4]
 80004b0:	70d3      	strb	r3, [r2, #3]
}
 80004b2:	bf00      	nop
 80004b4:	3708      	adds	r7, #8
 80004b6:	46bd      	mov	sp, r7
 80004b8:	bc90      	pop	{r4, r7}
 80004ba:	4770      	bx	lr
 80004bc:	20000040 	.word	0x20000040

080004c0 <updateDisplay>:
/**
 * Display data in dDisplayData.
 * Sets every digit to display its value and decimal point.
 */
void updateDisplay(void)
{
 80004c0:	b5b0      	push	{r4, r5, r7, lr}
 80004c2:	b082      	sub	sp, #8
 80004c4:	af00      	add	r7, sp, #0
	for(uint8_t i = 0; i < 4; i++)
 80004c6:	2300      	movs	r3, #0
 80004c8:	71fb      	strb	r3, [r7, #7]
 80004ca:	e026      	b.n	800051a <updateDisplay+0x5a>
	{

		setDigit(i);
 80004cc:	79fb      	ldrb	r3, [r7, #7]
 80004ce:	4618      	mov	r0, r3
 80004d0:	f7ff ffa2 	bl	8000418 <setDigit>
		set_sign(Display_sign[3-i]);
 80004d4:	79fb      	ldrb	r3, [r7, #7]
 80004d6:	f1c3 0303 	rsb	r3, r3, #3
 80004da:	4a14      	ldr	r2, [pc, #80]	; (800052c <updateDisplay+0x6c>)
 80004dc:	5cd3      	ldrb	r3, [r2, r3]
 80004de:	4618      	mov	r0, r3
 80004e0:	f7ff ff32 	bl	8000348 <set_sign>

		disp_time_saved = disp_time;
 80004e4:	4b12      	ldr	r3, [pc, #72]	; (8000530 <updateDisplay+0x70>)
 80004e6:	e9d3 2300 	ldrd	r2, r3, [r3]
 80004ea:	4912      	ldr	r1, [pc, #72]	; (8000534 <updateDisplay+0x74>)
 80004ec:	e9c1 2300 	strd	r2, r3, [r1]
		while((disp_time_saved + 2) > disp_time){};
 80004f0:	bf00      	nop
 80004f2:	4b10      	ldr	r3, [pc, #64]	; (8000534 <updateDisplay+0x74>)
 80004f4:	e9d3 2300 	ldrd	r2, r3, [r3]
 80004f8:	1c94      	adds	r4, r2, #2
 80004fa:	f143 0500 	adc.w	r5, r3, #0
 80004fe:	4b0c      	ldr	r3, [pc, #48]	; (8000530 <updateDisplay+0x70>)
 8000500:	e9d3 2300 	ldrd	r2, r3, [r3]
 8000504:	42ab      	cmp	r3, r5
 8000506:	bf08      	it	eq
 8000508:	42a2      	cmpeq	r2, r4
 800050a:	d3f2      	bcc.n	80004f2 <updateDisplay+0x32>

		resetDigits();
 800050c:	f7ff fedc 	bl	80002c8 <resetDigits>
		resetSegments();
 8000510:	f7ff fe7e 	bl	8000210 <resetSegments>
	for(uint8_t i = 0; i < 4; i++)
 8000514:	79fb      	ldrb	r3, [r7, #7]
 8000516:	3301      	adds	r3, #1
 8000518:	71fb      	strb	r3, [r7, #7]
 800051a:	79fb      	ldrb	r3, [r7, #7]
 800051c:	2b03      	cmp	r3, #3
 800051e:	d9d5      	bls.n	80004cc <updateDisplay+0xc>
	}
}
 8000520:	bf00      	nop
 8000522:	bf00      	nop
 8000524:	3708      	adds	r7, #8
 8000526:	46bd      	mov	sp, r7
 8000528:	bdb0      	pop	{r4, r5, r7, pc}
 800052a:	bf00      	nop
 800052c:	20000040 	.word	0x20000040
 8000530:	20000028 	.word	0x20000028
 8000534:	20000030 	.word	0x20000030

08000538 <__NVIC_GetPriorityGrouping>:
  \brief   Get Priority Grouping
  \details Reads the priority grouping field from the NVIC Interrupt Controller.
  \return                Priority grouping field (SCB->AIRCR [10:8] PRIGROUP field).
 */
__STATIC_INLINE uint32_t __NVIC_GetPriorityGrouping(void)
{
 8000538:	b480      	push	{r7}
 800053a:	af00      	add	r7, sp, #0
  return ((uint32_t)((SCB->AIRCR & SCB_AIRCR_PRIGROUP_Msk) >> SCB_AIRCR_PRIGROUP_Pos));
 800053c:	4b04      	ldr	r3, [pc, #16]	; (8000550 <__NVIC_GetPriorityGrouping+0x18>)
 800053e:	68db      	ldr	r3, [r3, #12]
 8000540:	0a1b      	lsrs	r3, r3, #8
 8000542:	f003 0307 	and.w	r3, r3, #7
}
 8000546:	4618      	mov	r0, r3
 8000548:	46bd      	mov	sp, r7
 800054a:	f85d 7b04 	ldr.w	r7, [sp], #4
 800054e:	4770      	bx	lr
 8000550:	e000ed00 	.word	0xe000ed00

08000554 <__NVIC_EnableIRQ>:
  \details Enables a device specific interrupt in the NVIC interrupt controller.
  \param [in]      IRQn  Device specific interrupt number.
  \note    IRQn must not be negative.
 */
__STATIC_INLINE void __NVIC_EnableIRQ(IRQn_Type IRQn)
{
 8000554:	b480      	push	{r7}
 8000556:	b083      	sub	sp, #12
 8000558:	af00      	add	r7, sp, #0
 800055a:	4603      	mov	r3, r0
 800055c:	71fb      	strb	r3, [r7, #7]
  if ((int32_t)(IRQn) >= 0)
 800055e:	f997 3007 	ldrsb.w	r3, [r7, #7]
 8000562:	2b00      	cmp	r3, #0
 8000564:	db0b      	blt.n	800057e <__NVIC_EnableIRQ+0x2a>
  {
    NVIC->ISER[(((uint32_t)IRQn) >> 5UL)] = (uint32_t)(1UL << (((uint32_t)IRQn) & 0x1FUL));
 8000566:	79fb      	ldrb	r3, [r7, #7]
 8000568:	f003 021f 	and.w	r2, r3, #31
 800056c:	4907      	ldr	r1, [pc, #28]	; (800058c <__NVIC_EnableIRQ+0x38>)
 800056e:	f997 3007 	ldrsb.w	r3, [r7, #7]
 8000572:	095b      	lsrs	r3, r3, #5
 8000574:	2001      	movs	r0, #1
 8000576:	fa00 f202 	lsl.w	r2, r0, r2
 800057a:	f841 2023 	str.w	r2, [r1, r3, lsl #2]
  }
}
 800057e:	bf00      	nop
 8000580:	370c      	adds	r7, #12
 8000582:	46bd      	mov	sp, r7
 8000584:	f85d 7b04 	ldr.w	r7, [sp], #4
 8000588:	4770      	bx	lr
 800058a:	bf00      	nop
 800058c:	e000e100 	.word	0xe000e100

08000590 <__NVIC_SetPriority>:
  \param [in]      IRQn  Interrupt number.
  \param [in]  priority  Priority to set.
  \note    The priority cannot be set for every processor exception.
 */
__STATIC_INLINE void __NVIC_SetPriority(IRQn_Type IRQn, uint32_t priority)
{
 8000590:	b480      	push	{r7}
 8000592:	b083      	sub	sp, #12
 8000594:	af00      	add	r7, sp, #0
 8000596:	4603      	mov	r3, r0
 8000598:	6039      	str	r1, [r7, #0]
 800059a:	71fb      	strb	r3, [r7, #7]
  if ((int32_t)(IRQn) >= 0)
 800059c:	f997 3007 	ldrsb.w	r3, [r7, #7]
 80005a0:	2b00      	cmp	r3, #0
 80005a2:	db0a      	blt.n	80005ba <__NVIC_SetPriority+0x2a>
  {
    NVIC->IP[((uint32_t)IRQn)]               = (uint8_t)((priority << (8U - __NVIC_PRIO_BITS)) & (uint32_t)0xFFUL);
 80005a4:	683b      	ldr	r3, [r7, #0]
 80005a6:	b2da      	uxtb	r2, r3
 80005a8:	490c      	ldr	r1, [pc, #48]	; (80005dc <__NVIC_SetPriority+0x4c>)
 80005aa:	f997 3007 	ldrsb.w	r3, [r7, #7]
 80005ae:	0112      	lsls	r2, r2, #4
 80005b0:	b2d2      	uxtb	r2, r2
 80005b2:	440b      	add	r3, r1
 80005b4:	f883 2300 	strb.w	r2, [r3, #768]	; 0x300
  }
  else
  {
    SCB->SHP[(((uint32_t)IRQn) & 0xFUL)-4UL] = (uint8_t)((priority << (8U - __NVIC_PRIO_BITS)) & (uint32_t)0xFFUL);
  }
}
 80005b8:	e00a      	b.n	80005d0 <__NVIC_SetPriority+0x40>
    SCB->SHP[(((uint32_t)IRQn) & 0xFUL)-4UL] = (uint8_t)((priority << (8U - __NVIC_PRIO_BITS)) & (uint32_t)0xFFUL);
 80005ba:	683b      	ldr	r3, [r7, #0]
 80005bc:	b2da      	uxtb	r2, r3
 80005be:	4908      	ldr	r1, [pc, #32]	; (80005e0 <__NVIC_SetPriority+0x50>)
 80005c0:	79fb      	ldrb	r3, [r7, #7]
 80005c2:	f003 030f 	and.w	r3, r3, #15
 80005c6:	3b04      	subs	r3, #4
 80005c8:	0112      	lsls	r2, r2, #4
 80005ca:	b2d2      	uxtb	r2, r2
 80005cc:	440b      	add	r3, r1
 80005ce:	761a      	strb	r2, [r3, #24]
}
 80005d0:	bf00      	nop
 80005d2:	370c      	adds	r7, #12
 80005d4:	46bd      	mov	sp, r7
 80005d6:	f85d 7b04 	ldr.w	r7, [sp], #4
 80005da:	4770      	bx	lr
 80005dc:	e000e100 	.word	0xe000e100
 80005e0:	e000ed00 	.word	0xe000ed00

080005e4 <NVIC_EncodePriority>:
  \param [in]   PreemptPriority  Preemptive priority value (starting from 0).
  \param [in]       SubPriority  Subpriority value (starting from 0).
  \return                        Encoded priority. Value can be used in the function \ref NVIC_SetPriority().
 */
__STATIC_INLINE uint32_t NVIC_EncodePriority (uint32_t PriorityGroup, uint32_t PreemptPriority, uint32_t SubPriority)
{
 80005e4:	b480      	push	{r7}
 80005e6:	b089      	sub	sp, #36	; 0x24
 80005e8:	af00      	add	r7, sp, #0
 80005ea:	60f8      	str	r0, [r7, #12]
 80005ec:	60b9      	str	r1, [r7, #8]
 80005ee:	607a      	str	r2, [r7, #4]
  uint32_t PriorityGroupTmp = (PriorityGroup & (uint32_t)0x07UL);   /* only values 0..7 are used          */
 80005f0:	68fb      	ldr	r3, [r7, #12]
 80005f2:	f003 0307 	and.w	r3, r3, #7
 80005f6:	61fb      	str	r3, [r7, #28]
  uint32_t PreemptPriorityBits;
  uint32_t SubPriorityBits;

  PreemptPriorityBits = ((7UL - PriorityGroupTmp) > (uint32_t)(__NVIC_PRIO_BITS)) ? (uint32_t)(__NVIC_PRIO_BITS) : (uint32_t)(7UL - PriorityGroupTmp);
 80005f8:	69fb      	ldr	r3, [r7, #28]
 80005fa:	f1c3 0307 	rsb	r3, r3, #7
 80005fe:	2b04      	cmp	r3, #4
 8000600:	bf28      	it	cs
 8000602:	2304      	movcs	r3, #4
 8000604:	61bb      	str	r3, [r7, #24]
  SubPriorityBits     = ((PriorityGroupTmp + (uint32_t)(__NVIC_PRIO_BITS)) < (uint32_t)7UL) ? (uint32_t)0UL : (uint32_t)((PriorityGroupTmp - 7UL) + (uint32_t)(__NVIC_PRIO_BITS));
 8000606:	69fb      	ldr	r3, [r7, #28]
 8000608:	3304      	adds	r3, #4
 800060a:	2b06      	cmp	r3, #6
 800060c:	d902      	bls.n	8000614 <NVIC_EncodePriority+0x30>
 800060e:	69fb      	ldr	r3, [r7, #28]
 8000610:	3b03      	subs	r3, #3
 8000612:	e000      	b.n	8000616 <NVIC_EncodePriority+0x32>
 8000614:	2300      	movs	r3, #0
 8000616:	617b      	str	r3, [r7, #20]

  return (
           ((PreemptPriority & (uint32_t)((1UL << (PreemptPriorityBits)) - 1UL)) << SubPriorityBits) |
 8000618:	f04f 32ff 	mov.w	r2, #4294967295
 800061c:	69bb      	ldr	r3, [r7, #24]
 800061e:	fa02 f303 	lsl.w	r3, r2, r3
 8000622:	43da      	mvns	r2, r3
 8000624:	68bb      	ldr	r3, [r7, #8]
 8000626:	401a      	ands	r2, r3
 8000628:	697b      	ldr	r3, [r7, #20]
 800062a:	409a      	lsls	r2, r3
           ((SubPriority     & (uint32_t)((1UL << (SubPriorityBits    )) - 1UL)))
 800062c:	f04f 31ff 	mov.w	r1, #4294967295
 8000630:	697b      	ldr	r3, [r7, #20]
 8000632:	fa01 f303 	lsl.w	r3, r1, r3
 8000636:	43d9      	mvns	r1, r3
 8000638:	687b      	ldr	r3, [r7, #4]
 800063a:	400b      	ands	r3, r1
           ((PreemptPriority & (uint32_t)((1UL << (PreemptPriorityBits)) - 1UL)) << SubPriorityBits) |
 800063c:	4313      	orrs	r3, r2
         );
}
 800063e:	4618      	mov	r0, r3
 8000640:	3724      	adds	r7, #36	; 0x24
 8000642:	46bd      	mov	sp, r7
 8000644:	f85d 7b04 	ldr.w	r7, [sp], #4
 8000648:	4770      	bx	lr
	...

0800064c <LL_AHB1_GRP1_EnableClock>:
  *
  *         (*) value not defined in all devices.
  * @retval None
*/
__STATIC_INLINE void LL_AHB1_GRP1_EnableClock(uint32_t Periphs)
{
 800064c:	b480      	push	{r7}
 800064e:	b085      	sub	sp, #20
 8000650:	af00      	add	r7, sp, #0
 8000652:	6078      	str	r0, [r7, #4]
  __IO uint32_t tmpreg;
  SET_BIT(RCC->AHBENR, Periphs);
 8000654:	4b08      	ldr	r3, [pc, #32]	; (8000678 <LL_AHB1_GRP1_EnableClock+0x2c>)
 8000656:	695a      	ldr	r2, [r3, #20]
 8000658:	4907      	ldr	r1, [pc, #28]	; (8000678 <LL_AHB1_GRP1_EnableClock+0x2c>)
 800065a:	687b      	ldr	r3, [r7, #4]
 800065c:	4313      	orrs	r3, r2
 800065e:	614b      	str	r3, [r1, #20]
  /* Delay after an RCC peripheral clock enabling */
  tmpreg = READ_BIT(RCC->AHBENR, Periphs);
 8000660:	4b05      	ldr	r3, [pc, #20]	; (8000678 <LL_AHB1_GRP1_EnableClock+0x2c>)
 8000662:	695a      	ldr	r2, [r3, #20]
 8000664:	687b      	ldr	r3, [r7, #4]
 8000666:	4013      	ands	r3, r2
 8000668:	60fb      	str	r3, [r7, #12]
  (void)tmpreg;
 800066a:	68fb      	ldr	r3, [r7, #12]
}
 800066c:	bf00      	nop
 800066e:	3714      	adds	r7, #20
 8000670:	46bd      	mov	sp, r7
 8000672:	f85d 7b04 	ldr.w	r7, [sp], #4
 8000676:	4770      	bx	lr
 8000678:	40021000 	.word	0x40021000

0800067c <LL_SYSCFG_SetEXTISource>:
  *         @arg @ref LL_SYSCFG_EXTI_LINE14
  *         @arg @ref LL_SYSCFG_EXTI_LINE15
  * @retval None
  */
__STATIC_INLINE void LL_SYSCFG_SetEXTISource(uint32_t Port, uint32_t Line)
{
 800067c:	b480      	push	{r7}
 800067e:	b085      	sub	sp, #20
 8000680:	af00      	add	r7, sp, #0
 8000682:	6078      	str	r0, [r7, #4]
 8000684:	6039      	str	r1, [r7, #0]
  MODIFY_REG(SYSCFG->EXTICR[Line & 0xFF], (Line >> 16U), Port << POSITION_VAL((Line >> 16U)));
 8000686:	4a13      	ldr	r2, [pc, #76]	; (80006d4 <LL_SYSCFG_SetEXTISource+0x58>)
 8000688:	683b      	ldr	r3, [r7, #0]
 800068a:	b2db      	uxtb	r3, r3
 800068c:	3302      	adds	r3, #2
 800068e:	f852 2023 	ldr.w	r2, [r2, r3, lsl #2]
 8000692:	683b      	ldr	r3, [r7, #0]
 8000694:	0c1b      	lsrs	r3, r3, #16
 8000696:	43db      	mvns	r3, r3
 8000698:	ea02 0103 	and.w	r1, r2, r3
 800069c:	683b      	ldr	r3, [r7, #0]
 800069e:	0c1b      	lsrs	r3, r3, #16
 80006a0:	60fb      	str	r3, [r7, #12]
  uint32_t result;

#if ((defined (__ARM_ARCH_7M__      ) && (__ARM_ARCH_7M__      == 1)) || \
     (defined (__ARM_ARCH_7EM__     ) && (__ARM_ARCH_7EM__     == 1)) || \
     (defined (__ARM_ARCH_8M_MAIN__ ) && (__ARM_ARCH_8M_MAIN__ == 1))    )
   __ASM volatile ("rbit %0, %1" : "=r" (result) : "r" (value) );
 80006a2:	68fb      	ldr	r3, [r7, #12]
 80006a4:	fa93 f3a3 	rbit	r3, r3
 80006a8:	60bb      	str	r3, [r7, #8]
    result |= value & 1U;
    s--;
  }
  result <<= s;                        /* shift when v's highest bits are zero */
#endif
  return result;
 80006aa:	68bb      	ldr	r3, [r7, #8]
 80006ac:	fab3 f383 	clz	r3, r3
 80006b0:	b2db      	uxtb	r3, r3
 80006b2:	461a      	mov	r2, r3
 80006b4:	687b      	ldr	r3, [r7, #4]
 80006b6:	fa03 f202 	lsl.w	r2, r3, r2
 80006ba:	4806      	ldr	r0, [pc, #24]	; (80006d4 <LL_SYSCFG_SetEXTISource+0x58>)
 80006bc:	683b      	ldr	r3, [r7, #0]
 80006be:	b2db      	uxtb	r3, r3
 80006c0:	430a      	orrs	r2, r1
 80006c2:	3302      	adds	r3, #2
 80006c4:	f840 2023 	str.w	r2, [r0, r3, lsl #2]
}
 80006c8:	bf00      	nop
 80006ca:	3714      	adds	r7, #20
 80006cc:	46bd      	mov	sp, r7
 80006ce:	f85d 7b04 	ldr.w	r7, [sp], #4
 80006d2:	4770      	bx	lr
 80006d4:	40010000 	.word	0x40010000

080006d8 <LL_GPIO_SetPinMode>:
{
 80006d8:	b480      	push	{r7}
 80006da:	b089      	sub	sp, #36	; 0x24
 80006dc:	af00      	add	r7, sp, #0
 80006de:	60f8      	str	r0, [r7, #12]
 80006e0:	60b9      	str	r1, [r7, #8]
 80006e2:	607a      	str	r2, [r7, #4]
  MODIFY_REG(GPIOx->MODER, (GPIO_MODER_MODER0 << (POSITION_VAL(Pin) * 2U)), (Mode << (POSITION_VAL(Pin) * 2U)));
 80006e4:	68fb      	ldr	r3, [r7, #12]
 80006e6:	681a      	ldr	r2, [r3, #0]
 80006e8:	68bb      	ldr	r3, [r7, #8]
 80006ea:	617b      	str	r3, [r7, #20]
   __ASM volatile ("rbit %0, %1" : "=r" (result) : "r" (value) );
 80006ec:	697b      	ldr	r3, [r7, #20]
 80006ee:	fa93 f3a3 	rbit	r3, r3
 80006f2:	613b      	str	r3, [r7, #16]
  return result;
 80006f4:	693b      	ldr	r3, [r7, #16]
 80006f6:	fab3 f383 	clz	r3, r3
 80006fa:	b2db      	uxtb	r3, r3
 80006fc:	005b      	lsls	r3, r3, #1
 80006fe:	2103      	movs	r1, #3
 8000700:	fa01 f303 	lsl.w	r3, r1, r3
 8000704:	43db      	mvns	r3, r3
 8000706:	401a      	ands	r2, r3
 8000708:	68bb      	ldr	r3, [r7, #8]
 800070a:	61fb      	str	r3, [r7, #28]
   __ASM volatile ("rbit %0, %1" : "=r" (result) : "r" (value) );
 800070c:	69fb      	ldr	r3, [r7, #28]
 800070e:	fa93 f3a3 	rbit	r3, r3
 8000712:	61bb      	str	r3, [r7, #24]
  return result;
 8000714:	69bb      	ldr	r3, [r7, #24]
 8000716:	fab3 f383 	clz	r3, r3
 800071a:	b2db      	uxtb	r3, r3
 800071c:	005b      	lsls	r3, r3, #1
 800071e:	6879      	ldr	r1, [r7, #4]
 8000720:	fa01 f303 	lsl.w	r3, r1, r3
 8000724:	431a      	orrs	r2, r3
 8000726:	68fb      	ldr	r3, [r7, #12]
 8000728:	601a      	str	r2, [r3, #0]
}
 800072a:	bf00      	nop
 800072c:	3724      	adds	r7, #36	; 0x24
 800072e:	46bd      	mov	sp, r7
 8000730:	f85d 7b04 	ldr.w	r7, [sp], #4
 8000734:	4770      	bx	lr

08000736 <LL_GPIO_SetPinPull>:
{
 8000736:	b480      	push	{r7}
 8000738:	b089      	sub	sp, #36	; 0x24
 800073a:	af00      	add	r7, sp, #0
 800073c:	60f8      	str	r0, [r7, #12]
 800073e:	60b9      	str	r1, [r7, #8]
 8000740:	607a      	str	r2, [r7, #4]
  MODIFY_REG(GPIOx->PUPDR, (GPIO_PUPDR_PUPDR0 << (POSITION_VAL(Pin) * 2U)), (Pull << (POSITION_VAL(Pin) * 2U)));
 8000742:	68fb      	ldr	r3, [r7, #12]
 8000744:	68da      	ldr	r2, [r3, #12]
 8000746:	68bb      	ldr	r3, [r7, #8]
 8000748:	617b      	str	r3, [r7, #20]
   __ASM volatile ("rbit %0, %1" : "=r" (result) : "r" (value) );
 800074a:	697b      	ldr	r3, [r7, #20]
 800074c:	fa93 f3a3 	rbit	r3, r3
 8000750:	613b      	str	r3, [r7, #16]
  return result;
 8000752:	693b      	ldr	r3, [r7, #16]
 8000754:	fab3 f383 	clz	r3, r3
 8000758:	b2db      	uxtb	r3, r3
 800075a:	005b      	lsls	r3, r3, #1
 800075c:	2103      	movs	r1, #3
 800075e:	fa01 f303 	lsl.w	r3, r1, r3
 8000762:	43db      	mvns	r3, r3
 8000764:	401a      	ands	r2, r3
 8000766:	68bb      	ldr	r3, [r7, #8]
 8000768:	61fb      	str	r3, [r7, #28]
   __ASM volatile ("rbit %0, %1" : "=r" (result) : "r" (value) );
 800076a:	69fb      	ldr	r3, [r7, #28]
 800076c:	fa93 f3a3 	rbit	r3, r3
 8000770:	61bb      	str	r3, [r7, #24]
  return result;
 8000772:	69bb      	ldr	r3, [r7, #24]
 8000774:	fab3 f383 	clz	r3, r3
 8000778:	b2db      	uxtb	r3, r3
 800077a:	005b      	lsls	r3, r3, #1
 800077c:	6879      	ldr	r1, [r7, #4]
 800077e:	fa01 f303 	lsl.w	r3, r1, r3
 8000782:	431a      	orrs	r2, r3
 8000784:	68fb      	ldr	r3, [r7, #12]
 8000786:	60da      	str	r2, [r3, #12]
}
 8000788:	bf00      	nop
 800078a:	3724      	adds	r7, #36	; 0x24
 800078c:	46bd      	mov	sp, r7
 800078e:	f85d 7b04 	ldr.w	r7, [sp], #4
 8000792:	4770      	bx	lr

08000794 <LL_GPIO_ResetOutputPin>:
{
 8000794:	b480      	push	{r7}
 8000796:	b083      	sub	sp, #12
 8000798:	af00      	add	r7, sp, #0
 800079a:	6078      	str	r0, [r7, #4]
 800079c:	6039      	str	r1, [r7, #0]
  WRITE_REG(GPIOx->BRR, PinMask);
 800079e:	687b      	ldr	r3, [r7, #4]
 80007a0:	683a      	ldr	r2, [r7, #0]
 80007a2:	629a      	str	r2, [r3, #40]	; 0x28
}
 80007a4:	bf00      	nop
 80007a6:	370c      	adds	r7, #12
 80007a8:	46bd      	mov	sp, r7
 80007aa:	f85d 7b04 	ldr.w	r7, [sp], #4
 80007ae:	4770      	bx	lr

080007b0 <MX_GPIO_Init>:
/* USER CODE END 1 */

/** Configure pins
*/
void MX_GPIO_Init(void)
{
 80007b0:	b580      	push	{r7, lr}
 80007b2:	b08a      	sub	sp, #40	; 0x28
 80007b4:	af00      	add	r7, sp, #0

  LL_EXTI_InitTypeDef EXTI_InitStruct = {0};
 80007b6:	f107 031c 	add.w	r3, r7, #28
 80007ba:	2200      	movs	r2, #0
 80007bc:	601a      	str	r2, [r3, #0]
 80007be:	605a      	str	r2, [r3, #4]
 80007c0:	609a      	str	r2, [r3, #8]
  LL_GPIO_InitTypeDef GPIO_InitStruct = {0};
 80007c2:	1d3b      	adds	r3, r7, #4
 80007c4:	2200      	movs	r2, #0
 80007c6:	601a      	str	r2, [r3, #0]
 80007c8:	605a      	str	r2, [r3, #4]
 80007ca:	609a      	str	r2, [r3, #8]
 80007cc:	60da      	str	r2, [r3, #12]
 80007ce:	611a      	str	r2, [r3, #16]
 80007d0:	615a      	str	r2, [r3, #20]

  /* GPIO Ports Clock Enable */
  LL_AHB1_GRP1_EnableClock(LL_AHB1_GRP1_PERIPH_GPIOA);
 80007d2:	f44f 3000 	mov.w	r0, #131072	; 0x20000
 80007d6:	f7ff ff39 	bl	800064c <LL_AHB1_GRP1_EnableClock>
  LL_AHB1_GRP1_EnableClock(LL_AHB1_GRP1_PERIPH_GPIOB);
 80007da:	f44f 2080 	mov.w	r0, #262144	; 0x40000
 80007de:	f7ff ff35 	bl	800064c <LL_AHB1_GRP1_EnableClock>

  /**/
  LL_GPIO_ResetOutputPin(GPIOA, LL_GPIO_PIN_0|LL_GPIO_PIN_1|LL_GPIO_PIN_2|LL_GPIO_PIN_3
 80007e2:	f641 119f 	movw	r1, #6559	; 0x199f
 80007e6:	f04f 4090 	mov.w	r0, #1207959552	; 0x48000000
 80007ea:	f7ff ffd3 	bl	8000794 <LL_GPIO_ResetOutputPin>
                          |LL_GPIO_PIN_4|LL_GPIO_PIN_7|LL_GPIO_PIN_8|LL_GPIO_PIN_11
                          |LL_GPIO_PIN_12);

  /**/
  LL_GPIO_ResetOutputPin(GPIOB, LL_GPIO_PIN_0|LL_GPIO_PIN_1|LL_GPIO_PIN_4|LL_GPIO_PIN_5);
 80007ee:	2133      	movs	r1, #51	; 0x33
 80007f0:	482b      	ldr	r0, [pc, #172]	; (80008a0 <MX_GPIO_Init+0xf0>)
 80007f2:	f7ff ffcf 	bl	8000794 <LL_GPIO_ResetOutputPin>

  /**/
  GPIO_InitStruct.Pin = LL_GPIO_PIN_0|LL_GPIO_PIN_1|LL_GPIO_PIN_2|LL_GPIO_PIN_3
 80007f6:	f641 139f 	movw	r3, #6559	; 0x199f
 80007fa:	607b      	str	r3, [r7, #4]
                          |LL_GPIO_PIN_4|LL_GPIO_PIN_7|LL_GPIO_PIN_8|LL_GPIO_PIN_11
                          |LL_GPIO_PIN_12;
  GPIO_InitStruct.Mode = LL_GPIO_MODE_OUTPUT;
 80007fc:	2301      	movs	r3, #1
 80007fe:	60bb      	str	r3, [r7, #8]
  GPIO_InitStruct.Speed = LL_GPIO_SPEED_FREQ_LOW;
 8000800:	2300      	movs	r3, #0
 8000802:	60fb      	str	r3, [r7, #12]
  GPIO_InitStruct.OutputType = LL_GPIO_OUTPUT_PUSHPULL;
 8000804:	2300      	movs	r3, #0
 8000806:	613b      	str	r3, [r7, #16]
  GPIO_InitStruct.Pull = LL_GPIO_PULL_NO;
 8000808:	2300      	movs	r3, #0
 800080a:	617b      	str	r3, [r7, #20]
  LL_GPIO_Init(GPIOA, &GPIO_InitStruct);
 800080c:	1d3b      	adds	r3, r7, #4
 800080e:	4619      	mov	r1, r3
 8000810:	f04f 4090 	mov.w	r0, #1207959552	; 0x48000000
 8000814:	f001 fbbe 	bl	8001f94 <LL_GPIO_Init>

  /**/
  GPIO_InitStruct.Pin = LL_GPIO_PIN_0|LL_GPIO_PIN_1|LL_GPIO_PIN_4|LL_GPIO_PIN_5;
 8000818:	2333      	movs	r3, #51	; 0x33
 800081a:	607b      	str	r3, [r7, #4]
  GPIO_InitStruct.Mode = LL_GPIO_MODE_OUTPUT;
 800081c:	2301      	movs	r3, #1
 800081e:	60bb      	str	r3, [r7, #8]
  GPIO_InitStruct.Speed = LL_GPIO_SPEED_FREQ_LOW;
 8000820:	2300      	movs	r3, #0
 8000822:	60fb      	str	r3, [r7, #12]
  GPIO_InitStruct.OutputType = LL_GPIO_OUTPUT_PUSHPULL;
 8000824:	2300      	movs	r3, #0
 8000826:	613b      	str	r3, [r7, #16]
  GPIO_InitStruct.Pull = LL_GPIO_PULL_NO;
 8000828:	2300      	movs	r3, #0
 800082a:	617b      	str	r3, [r7, #20]
  LL_GPIO_Init(GPIOB, &GPIO_InitStruct);
 800082c:	1d3b      	adds	r3, r7, #4
 800082e:	4619      	mov	r1, r3
 8000830:	481b      	ldr	r0, [pc, #108]	; (80008a0 <MX_GPIO_Init+0xf0>)
 8000832:	f001 fbaf 	bl	8001f94 <LL_GPIO_Init>

  /**/
  LL_SYSCFG_SetEXTISource(LL_SYSCFG_EXTI_PORTB, LL_SYSCFG_EXTI_LINE3);
 8000836:	f04f 4170 	mov.w	r1, #4026531840	; 0xf0000000
 800083a:	2001      	movs	r0, #1
 800083c:	f7ff ff1e 	bl	800067c <LL_SYSCFG_SetEXTISource>

  /**/
  LL_GPIO_SetPinPull(GPIOB, LL_GPIO_PIN_3, LL_GPIO_PULL_UP);
 8000840:	2201      	movs	r2, #1
 8000842:	2108      	movs	r1, #8
 8000844:	4816      	ldr	r0, [pc, #88]	; (80008a0 <MX_GPIO_Init+0xf0>)
 8000846:	f7ff ff76 	bl	8000736 <LL_GPIO_SetPinPull>

  /**/
  LL_GPIO_SetPinMode(GPIOB, LL_GPIO_PIN_3, LL_GPIO_MODE_INPUT);
 800084a:	2200      	movs	r2, #0
 800084c:	2108      	movs	r1, #8
 800084e:	4814      	ldr	r0, [pc, #80]	; (80008a0 <MX_GPIO_Init+0xf0>)
 8000850:	f7ff ff42 	bl	80006d8 <LL_GPIO_SetPinMode>

  /**/
  EXTI_InitStruct.Line_0_31 = LL_EXTI_LINE_3;
 8000854:	2308      	movs	r3, #8
 8000856:	61fb      	str	r3, [r7, #28]
  EXTI_InitStruct.Line_32_63 = LL_EXTI_LINE_NONE;
 8000858:	2300      	movs	r3, #0
 800085a:	623b      	str	r3, [r7, #32]
  EXTI_InitStruct.LineCommand = ENABLE;
 800085c:	2301      	movs	r3, #1
 800085e:	f887 3024 	strb.w	r3, [r7, #36]	; 0x24
  EXTI_InitStruct.Mode = LL_EXTI_MODE_IT;
 8000862:	2300      	movs	r3, #0
 8000864:	f887 3025 	strb.w	r3, [r7, #37]	; 0x25
  EXTI_InitStruct.Trigger = LL_EXTI_TRIGGER_FALLING;
 8000868:	2302      	movs	r3, #2
 800086a:	f887 3026 	strb.w	r3, [r7, #38]	; 0x26
  LL_EXTI_Init(&EXTI_InitStruct);
 800086e:	f107 031c 	add.w	r3, r7, #28
 8000872:	4618      	mov	r0, r3
 8000874:	f001 f996 	bl	8001ba4 <LL_EXTI_Init>

  /* EXTI interrupt init*/
  NVIC_SetPriority(EXTI3_IRQn, NVIC_EncodePriority(NVIC_GetPriorityGrouping(),1, 0));
 8000878:	f7ff fe5e 	bl	8000538 <__NVIC_GetPriorityGrouping>
 800087c:	4603      	mov	r3, r0
 800087e:	2200      	movs	r2, #0
 8000880:	2101      	movs	r1, #1
 8000882:	4618      	mov	r0, r3
 8000884:	f7ff feae 	bl	80005e4 <NVIC_EncodePriority>
 8000888:	4603      	mov	r3, r0
 800088a:	4619      	mov	r1, r3
 800088c:	2009      	movs	r0, #9
 800088e:	f7ff fe7f 	bl	8000590 <__NVIC_SetPriority>
  NVIC_EnableIRQ(EXTI3_IRQn);
 8000892:	2009      	movs	r0, #9
 8000894:	f7ff fe5e 	bl	8000554 <__NVIC_EnableIRQ>

}
 8000898:	bf00      	nop
 800089a:	3728      	adds	r7, #40	; 0x28
 800089c:	46bd      	mov	sp, r7
 800089e:	bd80      	pop	{r7, pc}
 80008a0:	48000400 	.word	0x48000400

080008a4 <__NVIC_GetPriorityGrouping>:
{
 80008a4:	b480      	push	{r7}
 80008a6:	af00      	add	r7, sp, #0
  return ((uint32_t)((SCB->AIRCR & SCB_AIRCR_PRIGROUP_Msk) >> SCB_AIRCR_PRIGROUP_Pos));
 80008a8:	4b04      	ldr	r3, [pc, #16]	; (80008bc <__NVIC_GetPriorityGrouping+0x18>)
 80008aa:	68db      	ldr	r3, [r3, #12]
 80008ac:	0a1b      	lsrs	r3, r3, #8
 80008ae:	f003 0307 	and.w	r3, r3, #7
}
 80008b2:	4618      	mov	r0, r3
 80008b4:	46bd      	mov	sp, r7
 80008b6:	f85d 7b04 	ldr.w	r7, [sp], #4
 80008ba:	4770      	bx	lr
 80008bc:	e000ed00 	.word	0xe000ed00

080008c0 <__NVIC_EnableIRQ>:
{
 80008c0:	b480      	push	{r7}
 80008c2:	b083      	sub	sp, #12
 80008c4:	af00      	add	r7, sp, #0
 80008c6:	4603      	mov	r3, r0
 80008c8:	71fb      	strb	r3, [r7, #7]
  if ((int32_t)(IRQn) >= 0)
 80008ca:	f997 3007 	ldrsb.w	r3, [r7, #7]
 80008ce:	2b00      	cmp	r3, #0
 80008d0:	db0b      	blt.n	80008ea <__NVIC_EnableIRQ+0x2a>
    NVIC->ISER[(((uint32_t)IRQn) >> 5UL)] = (uint32_t)(1UL << (((uint32_t)IRQn) & 0x1FUL));
 80008d2:	79fb      	ldrb	r3, [r7, #7]
 80008d4:	f003 021f 	and.w	r2, r3, #31
 80008d8:	4907      	ldr	r1, [pc, #28]	; (80008f8 <__NVIC_EnableIRQ+0x38>)
 80008da:	f997 3007 	ldrsb.w	r3, [r7, #7]
 80008de:	095b      	lsrs	r3, r3, #5
 80008e0:	2001      	movs	r0, #1
 80008e2:	fa00 f202 	lsl.w	r2, r0, r2
 80008e6:	f841 2023 	str.w	r2, [r1, r3, lsl #2]
}
 80008ea:	bf00      	nop
 80008ec:	370c      	adds	r7, #12
 80008ee:	46bd      	mov	sp, r7
 80008f0:	f85d 7b04 	ldr.w	r7, [sp], #4
 80008f4:	4770      	bx	lr
 80008f6:	bf00      	nop
 80008f8:	e000e100 	.word	0xe000e100

080008fc <__NVIC_SetPriority>:
{
 80008fc:	b480      	push	{r7}
 80008fe:	b083      	sub	sp, #12
 8000900:	af00      	add	r7, sp, #0
 8000902:	4603      	mov	r3, r0
 8000904:	6039      	str	r1, [r7, #0]
 8000906:	71fb      	strb	r3, [r7, #7]
  if ((int32_t)(IRQn) >= 0)
 8000908:	f997 3007 	ldrsb.w	r3, [r7, #7]
 800090c:	2b00      	cmp	r3, #0
 800090e:	db0a      	blt.n	8000926 <__NVIC_SetPriority+0x2a>
    NVIC->IP[((uint32_t)IRQn)]               = (uint8_t)((priority << (8U - __NVIC_PRIO_BITS)) & (uint32_t)0xFFUL);
 8000910:	683b      	ldr	r3, [r7, #0]
 8000912:	b2da      	uxtb	r2, r3
 8000914:	490c      	ldr	r1, [pc, #48]	; (8000948 <__NVIC_SetPriority+0x4c>)
 8000916:	f997 3007 	ldrsb.w	r3, [r7, #7]
 800091a:	0112      	lsls	r2, r2, #4
 800091c:	b2d2      	uxtb	r2, r2
 800091e:	440b      	add	r3, r1
 8000920:	f883 2300 	strb.w	r2, [r3, #768]	; 0x300
}
 8000924:	e00a      	b.n	800093c <__NVIC_SetPriority+0x40>
    SCB->SHP[(((uint32_t)IRQn) & 0xFUL)-4UL] = (uint8_t)((priority << (8U - __NVIC_PRIO_BITS)) & (uint32_t)0xFFUL);
 8000926:	683b      	ldr	r3, [r7, #0]
 8000928:	b2da      	uxtb	r2, r3
 800092a:	4908      	ldr	r1, [pc, #32]	; (800094c <__NVIC_SetPriority+0x50>)
 800092c:	79fb      	ldrb	r3, [r7, #7]
 800092e:	f003 030f 	and.w	r3, r3, #15
 8000932:	3b04      	subs	r3, #4
 8000934:	0112      	lsls	r2, r2, #4
 8000936:	b2d2      	uxtb	r2, r2
 8000938:	440b      	add	r3, r1
 800093a:	761a      	strb	r2, [r3, #24]
}
 800093c:	bf00      	nop
 800093e:	370c      	adds	r7, #12
 8000940:	46bd      	mov	sp, r7
 8000942:	f85d 7b04 	ldr.w	r7, [sp], #4
 8000946:	4770      	bx	lr
 8000948:	e000e100 	.word	0xe000e100
 800094c:	e000ed00 	.word	0xe000ed00

08000950 <NVIC_EncodePriority>:
{
 8000950:	b480      	push	{r7}
 8000952:	b089      	sub	sp, #36	; 0x24
 8000954:	af00      	add	r7, sp, #0
 8000956:	60f8      	str	r0, [r7, #12]
 8000958:	60b9      	str	r1, [r7, #8]
 800095a:	607a      	str	r2, [r7, #4]
  uint32_t PriorityGroupTmp = (PriorityGroup & (uint32_t)0x07UL);   /* only values 0..7 are used          */
 800095c:	68fb      	ldr	r3, [r7, #12]
 800095e:	f003 0307 	and.w	r3, r3, #7
 8000962:	61fb      	str	r3, [r7, #28]
  PreemptPriorityBits = ((7UL - PriorityGroupTmp) > (uint32_t)(__NVIC_PRIO_BITS)) ? (uint32_t)(__NVIC_PRIO_BITS) : (uint32_t)(7UL - PriorityGroupTmp);
 8000964:	69fb      	ldr	r3, [r7, #28]
 8000966:	f1c3 0307 	rsb	r3, r3, #7
 800096a:	2b04      	cmp	r3, #4
 800096c:	bf28      	it	cs
 800096e:	2304      	movcs	r3, #4
 8000970:	61bb      	str	r3, [r7, #24]
  SubPriorityBits     = ((PriorityGroupTmp + (uint32_t)(__NVIC_PRIO_BITS)) < (uint32_t)7UL) ? (uint32_t)0UL : (uint32_t)((PriorityGroupTmp - 7UL) + (uint32_t)(__NVIC_PRIO_BITS));
 8000972:	69fb      	ldr	r3, [r7, #28]
 8000974:	3304      	adds	r3, #4
 8000976:	2b06      	cmp	r3, #6
 8000978:	d902      	bls.n	8000980 <NVIC_EncodePriority+0x30>
 800097a:	69fb      	ldr	r3, [r7, #28]
 800097c:	3b03      	subs	r3, #3
 800097e:	e000      	b.n	8000982 <NVIC_EncodePriority+0x32>
 8000980:	2300      	movs	r3, #0
 8000982:	617b      	str	r3, [r7, #20]
           ((PreemptPriority & (uint32_t)((1UL << (PreemptPriorityBits)) - 1UL)) << SubPriorityBits) |
 8000984:	f04f 32ff 	mov.w	r2, #4294967295
 8000988:	69bb      	ldr	r3, [r7, #24]
 800098a:	fa02 f303 	lsl.w	r3, r2, r3
 800098e:	43da      	mvns	r2, r3
 8000990:	68bb      	ldr	r3, [r7, #8]
 8000992:	401a      	ands	r2, r3
 8000994:	697b      	ldr	r3, [r7, #20]
 8000996:	409a      	lsls	r2, r3
           ((SubPriority     & (uint32_t)((1UL << (SubPriorityBits    )) - 1UL)))
 8000998:	f04f 31ff 	mov.w	r1, #4294967295
 800099c:	697b      	ldr	r3, [r7, #20]
 800099e:	fa01 f303 	lsl.w	r3, r1, r3
 80009a2:	43d9      	mvns	r1, r3
 80009a4:	687b      	ldr	r3, [r7, #4]
 80009a6:	400b      	ands	r3, r1
           ((PreemptPriority & (uint32_t)((1UL << (PreemptPriorityBits)) - 1UL)) << SubPriorityBits) |
 80009a8:	4313      	orrs	r3, r2
}
 80009aa:	4618      	mov	r0, r3
 80009ac:	3724      	adds	r7, #36	; 0x24
 80009ae:	46bd      	mov	sp, r7
 80009b0:	f85d 7b04 	ldr.w	r7, [sp], #4
 80009b4:	4770      	bx	lr

080009b6 <LL_I2C_Enable>:
  * @rmtoll CR1          PE            LL_I2C_Enable
  * @param  I2Cx I2C Instance.
  * @retval None
  */
__STATIC_INLINE void LL_I2C_Enable(I2C_TypeDef *I2Cx)
{
 80009b6:	b480      	push	{r7}
 80009b8:	b083      	sub	sp, #12
 80009ba:	af00      	add	r7, sp, #0
 80009bc:	6078      	str	r0, [r7, #4]
  SET_BIT(I2Cx->CR1, I2C_CR1_PE);
 80009be:	687b      	ldr	r3, [r7, #4]
 80009c0:	681b      	ldr	r3, [r3, #0]
 80009c2:	f043 0201 	orr.w	r2, r3, #1
 80009c6:	687b      	ldr	r3, [r7, #4]
 80009c8:	601a      	str	r2, [r3, #0]
}
 80009ca:	bf00      	nop
 80009cc:	370c      	adds	r7, #12
 80009ce:	46bd      	mov	sp, r7
 80009d0:	f85d 7b04 	ldr.w	r7, [sp], #4
 80009d4:	4770      	bx	lr

080009d6 <LL_I2C_EnableClockStretching>:
  * @rmtoll CR1          NOSTRETCH     LL_I2C_EnableClockStretching
  * @param  I2Cx I2C Instance.
  * @retval None
  */
__STATIC_INLINE void LL_I2C_EnableClockStretching(I2C_TypeDef *I2Cx)
{
 80009d6:	b480      	push	{r7}
 80009d8:	b083      	sub	sp, #12
 80009da:	af00      	add	r7, sp, #0
 80009dc:	6078      	str	r0, [r7, #4]
  CLEAR_BIT(I2Cx->CR1, I2C_CR1_NOSTRETCH);
 80009de:	687b      	ldr	r3, [r7, #4]
 80009e0:	681b      	ldr	r3, [r3, #0]
 80009e2:	f423 3200 	bic.w	r2, r3, #131072	; 0x20000
 80009e6:	687b      	ldr	r3, [r7, #4]
 80009e8:	601a      	str	r2, [r3, #0]
}
 80009ea:	bf00      	nop
 80009ec:	370c      	adds	r7, #12
 80009ee:	46bd      	mov	sp, r7
 80009f0:	f85d 7b04 	ldr.w	r7, [sp], #4
 80009f4:	4770      	bx	lr

080009f6 <LL_I2C_DisableGeneralCall>:
  * @rmtoll CR1          GCEN          LL_I2C_DisableGeneralCall
  * @param  I2Cx I2C Instance.
  * @retval None
  */
__STATIC_INLINE void LL_I2C_DisableGeneralCall(I2C_TypeDef *I2Cx)
{
 80009f6:	b480      	push	{r7}
 80009f8:	b083      	sub	sp, #12
 80009fa:	af00      	add	r7, sp, #0
 80009fc:	6078      	str	r0, [r7, #4]
  CLEAR_BIT(I2Cx->CR1, I2C_CR1_GCEN);
 80009fe:	687b      	ldr	r3, [r7, #4]
 8000a00:	681b      	ldr	r3, [r3, #0]
 8000a02:	f423 2200 	bic.w	r2, r3, #524288	; 0x80000
 8000a06:	687b      	ldr	r3, [r7, #4]
 8000a08:	601a      	str	r2, [r3, #0]
}
 8000a0a:	bf00      	nop
 8000a0c:	370c      	adds	r7, #12
 8000a0e:	46bd      	mov	sp, r7
 8000a10:	f85d 7b04 	ldr.w	r7, [sp], #4
 8000a14:	4770      	bx	lr

08000a16 <LL_I2C_SetOwnAddress2>:
  *         @arg @ref LL_I2C_OWNADDRESS2_MASK06
  *         @arg @ref LL_I2C_OWNADDRESS2_MASK07
  * @retval None
  */
__STATIC_INLINE void LL_I2C_SetOwnAddress2(I2C_TypeDef *I2Cx, uint32_t OwnAddress2, uint32_t OwnAddrMask)
{
 8000a16:	b480      	push	{r7}
 8000a18:	b085      	sub	sp, #20
 8000a1a:	af00      	add	r7, sp, #0
 8000a1c:	60f8      	str	r0, [r7, #12]
 8000a1e:	60b9      	str	r1, [r7, #8]
 8000a20:	607a      	str	r2, [r7, #4]
  MODIFY_REG(I2Cx->OAR2, I2C_OAR2_OA2 | I2C_OAR2_OA2MSK, OwnAddress2 | OwnAddrMask);
 8000a22:	68fb      	ldr	r3, [r7, #12]
 8000a24:	68db      	ldr	r3, [r3, #12]
 8000a26:	f423 63ff 	bic.w	r3, r3, #2040	; 0x7f8
 8000a2a:	f023 0306 	bic.w	r3, r3, #6
 8000a2e:	68b9      	ldr	r1, [r7, #8]
 8000a30:	687a      	ldr	r2, [r7, #4]
 8000a32:	430a      	orrs	r2, r1
 8000a34:	431a      	orrs	r2, r3
 8000a36:	68fb      	ldr	r3, [r7, #12]
 8000a38:	60da      	str	r2, [r3, #12]
}
 8000a3a:	bf00      	nop
 8000a3c:	3714      	adds	r7, #20
 8000a3e:	46bd      	mov	sp, r7
 8000a40:	f85d 7b04 	ldr.w	r7, [sp], #4
 8000a44:	4770      	bx	lr

08000a46 <LL_I2C_DisableOwnAddress2>:
  * @rmtoll OAR2         OA2EN         LL_I2C_DisableOwnAddress2
  * @param  I2Cx I2C Instance.
  * @retval None
  */
__STATIC_INLINE void LL_I2C_DisableOwnAddress2(I2C_TypeDef *I2Cx)
{
 8000a46:	b480      	push	{r7}
 8000a48:	b083      	sub	sp, #12
 8000a4a:	af00      	add	r7, sp, #0
 8000a4c:	6078      	str	r0, [r7, #4]
  CLEAR_BIT(I2Cx->OAR2, I2C_OAR2_OA2EN);
 8000a4e:	687b      	ldr	r3, [r7, #4]
 8000a50:	68db      	ldr	r3, [r3, #12]
 8000a52:	f423 4200 	bic.w	r2, r3, #32768	; 0x8000
 8000a56:	687b      	ldr	r3, [r7, #4]
 8000a58:	60da      	str	r2, [r3, #12]
}
 8000a5a:	bf00      	nop
 8000a5c:	370c      	adds	r7, #12
 8000a5e:	46bd      	mov	sp, r7
 8000a60:	f85d 7b04 	ldr.w	r7, [sp], #4
 8000a64:	4770      	bx	lr

08000a66 <LL_I2C_EnableIT_RX>:
  * @rmtoll CR1          RXIE          LL_I2C_EnableIT_RX
  * @param  I2Cx I2C Instance.
  * @retval None
  */
__STATIC_INLINE void LL_I2C_EnableIT_RX(I2C_TypeDef *I2Cx)
{
 8000a66:	b480      	push	{r7}
 8000a68:	b083      	sub	sp, #12
 8000a6a:	af00      	add	r7, sp, #0
 8000a6c:	6078      	str	r0, [r7, #4]
  SET_BIT(I2Cx->CR1, I2C_CR1_RXIE);
 8000a6e:	687b      	ldr	r3, [r7, #4]
 8000a70:	681b      	ldr	r3, [r3, #0]
 8000a72:	f043 0204 	orr.w	r2, r3, #4
 8000a76:	687b      	ldr	r3, [r7, #4]
 8000a78:	601a      	str	r2, [r3, #0]
}
 8000a7a:	bf00      	nop
 8000a7c:	370c      	adds	r7, #12
 8000a7e:	46bd      	mov	sp, r7
 8000a80:	f85d 7b04 	ldr.w	r7, [sp], #4
 8000a84:	4770      	bx	lr

08000a86 <LL_I2C_DisableIT_RX>:
  * @rmtoll CR1          RXIE          LL_I2C_DisableIT_RX
  * @param  I2Cx I2C Instance.
  * @retval None
  */
__STATIC_INLINE void LL_I2C_DisableIT_RX(I2C_TypeDef *I2Cx)
{
 8000a86:	b480      	push	{r7}
 8000a88:	b083      	sub	sp, #12
 8000a8a:	af00      	add	r7, sp, #0
 8000a8c:	6078      	str	r0, [r7, #4]
  CLEAR_BIT(I2Cx->CR1, I2C_CR1_RXIE);
 8000a8e:	687b      	ldr	r3, [r7, #4]
 8000a90:	681b      	ldr	r3, [r3, #0]
 8000a92:	f023 0204 	bic.w	r2, r3, #4
 8000a96:	687b      	ldr	r3, [r7, #4]
 8000a98:	601a      	str	r2, [r3, #0]
}
 8000a9a:	bf00      	nop
 8000a9c:	370c      	adds	r7, #12
 8000a9e:	46bd      	mov	sp, r7
 8000aa0:	f85d 7b04 	ldr.w	r7, [sp], #4
 8000aa4:	4770      	bx	lr

08000aa6 <LL_I2C_IsActiveFlag_TXIS>:
  * @rmtoll ISR          TXIS          LL_I2C_IsActiveFlag_TXIS
  * @param  I2Cx I2C Instance.
  * @retval State of bit (1 or 0).
  */
__STATIC_INLINE uint32_t LL_I2C_IsActiveFlag_TXIS(I2C_TypeDef *I2Cx)
{
 8000aa6:	b480      	push	{r7}
 8000aa8:	b083      	sub	sp, #12
 8000aaa:	af00      	add	r7, sp, #0
 8000aac:	6078      	str	r0, [r7, #4]
  return ((READ_BIT(I2Cx->ISR, I2C_ISR_TXIS) == (I2C_ISR_TXIS)) ? 1UL : 0UL);
 8000aae:	687b      	ldr	r3, [r7, #4]
 8000ab0:	699b      	ldr	r3, [r3, #24]
 8000ab2:	f003 0302 	and.w	r3, r3, #2
 8000ab6:	2b02      	cmp	r3, #2
 8000ab8:	d101      	bne.n	8000abe <LL_I2C_IsActiveFlag_TXIS+0x18>
 8000aba:	2301      	movs	r3, #1
 8000abc:	e000      	b.n	8000ac0 <LL_I2C_IsActiveFlag_TXIS+0x1a>
 8000abe:	2300      	movs	r3, #0
}
 8000ac0:	4618      	mov	r0, r3
 8000ac2:	370c      	adds	r7, #12
 8000ac4:	46bd      	mov	sp, r7
 8000ac6:	f85d 7b04 	ldr.w	r7, [sp], #4
 8000aca:	4770      	bx	lr

08000acc <LL_I2C_IsActiveFlag_RXNE>:
  * @rmtoll ISR          RXNE          LL_I2C_IsActiveFlag_RXNE
  * @param  I2Cx I2C Instance.
  * @retval State of bit (1 or 0).
  */
__STATIC_INLINE uint32_t LL_I2C_IsActiveFlag_RXNE(I2C_TypeDef *I2Cx)
{
 8000acc:	b480      	push	{r7}
 8000ace:	b083      	sub	sp, #12
 8000ad0:	af00      	add	r7, sp, #0
 8000ad2:	6078      	str	r0, [r7, #4]
  return ((READ_BIT(I2Cx->ISR, I2C_ISR_RXNE) == (I2C_ISR_RXNE)) ? 1UL : 0UL);
 8000ad4:	687b      	ldr	r3, [r7, #4]
 8000ad6:	699b      	ldr	r3, [r3, #24]
 8000ad8:	f003 0304 	and.w	r3, r3, #4
 8000adc:	2b04      	cmp	r3, #4
 8000ade:	d101      	bne.n	8000ae4 <LL_I2C_IsActiveFlag_RXNE+0x18>
 8000ae0:	2301      	movs	r3, #1
 8000ae2:	e000      	b.n	8000ae6 <LL_I2C_IsActiveFlag_RXNE+0x1a>
 8000ae4:	2300      	movs	r3, #0
}
 8000ae6:	4618      	mov	r0, r3
 8000ae8:	370c      	adds	r7, #12
 8000aea:	46bd      	mov	sp, r7
 8000aec:	f85d 7b04 	ldr.w	r7, [sp], #4
 8000af0:	4770      	bx	lr

08000af2 <LL_I2C_IsActiveFlag_STOP>:
  * @rmtoll ISR          STOPF         LL_I2C_IsActiveFlag_STOP
  * @param  I2Cx I2C Instance.
  * @retval State of bit (1 or 0).
  */
__STATIC_INLINE uint32_t LL_I2C_IsActiveFlag_STOP(I2C_TypeDef *I2Cx)
{
 8000af2:	b480      	push	{r7}
 8000af4:	b083      	sub	sp, #12
 8000af6:	af00      	add	r7, sp, #0
 8000af8:	6078      	str	r0, [r7, #4]
  return ((READ_BIT(I2Cx->ISR, I2C_ISR_STOPF) == (I2C_ISR_STOPF)) ? 1UL : 0UL);
 8000afa:	687b      	ldr	r3, [r7, #4]
 8000afc:	699b      	ldr	r3, [r3, #24]
 8000afe:	f003 0320 	and.w	r3, r3, #32
 8000b02:	2b20      	cmp	r3, #32
 8000b04:	d101      	bne.n	8000b0a <LL_I2C_IsActiveFlag_STOP+0x18>
 8000b06:	2301      	movs	r3, #1
 8000b08:	e000      	b.n	8000b0c <LL_I2C_IsActiveFlag_STOP+0x1a>
 8000b0a:	2300      	movs	r3, #0
}
 8000b0c:	4618      	mov	r0, r3
 8000b0e:	370c      	adds	r7, #12
 8000b10:	46bd      	mov	sp, r7
 8000b12:	f85d 7b04 	ldr.w	r7, [sp], #4
 8000b16:	4770      	bx	lr

08000b18 <LL_I2C_ClearFlag_STOP>:
  * @rmtoll ICR          STOPCF        LL_I2C_ClearFlag_STOP
  * @param  I2Cx I2C Instance.
  * @retval None
  */
__STATIC_INLINE void LL_I2C_ClearFlag_STOP(I2C_TypeDef *I2Cx)
{
 8000b18:	b480      	push	{r7}
 8000b1a:	b083      	sub	sp, #12
 8000b1c:	af00      	add	r7, sp, #0
 8000b1e:	6078      	str	r0, [r7, #4]
  SET_BIT(I2Cx->ICR, I2C_ICR_STOPCF);
 8000b20:	687b      	ldr	r3, [r7, #4]
 8000b22:	69db      	ldr	r3, [r3, #28]
 8000b24:	f043 0220 	orr.w	r2, r3, #32
 8000b28:	687b      	ldr	r3, [r7, #4]
 8000b2a:	61da      	str	r2, [r3, #28]
}
 8000b2c:	bf00      	nop
 8000b2e:	370c      	adds	r7, #12
 8000b30:	46bd      	mov	sp, r7
 8000b32:	f85d 7b04 	ldr.w	r7, [sp], #4
 8000b36:	4770      	bx	lr

08000b38 <LL_I2C_EnableAutoEndMode>:
  * @rmtoll CR2          AUTOEND       LL_I2C_EnableAutoEndMode
  * @param  I2Cx I2C Instance.
  * @retval None
  */
__STATIC_INLINE void LL_I2C_EnableAutoEndMode(I2C_TypeDef *I2Cx)
{
 8000b38:	b480      	push	{r7}
 8000b3a:	b083      	sub	sp, #12
 8000b3c:	af00      	add	r7, sp, #0
 8000b3e:	6078      	str	r0, [r7, #4]
  SET_BIT(I2Cx->CR2, I2C_CR2_AUTOEND);
 8000b40:	687b      	ldr	r3, [r7, #4]
 8000b42:	685b      	ldr	r3, [r3, #4]
 8000b44:	f043 7200 	orr.w	r2, r3, #33554432	; 0x2000000
 8000b48:	687b      	ldr	r3, [r7, #4]
 8000b4a:	605a      	str	r2, [r3, #4]
}
 8000b4c:	bf00      	nop
 8000b4e:	370c      	adds	r7, #12
 8000b50:	46bd      	mov	sp, r7
 8000b52:	f85d 7b04 	ldr.w	r7, [sp], #4
 8000b56:	4770      	bx	lr

08000b58 <LL_I2C_HandleTransfer>:
  *         @arg @ref LL_I2C_GENERATE_RESTART_10BIT_WRITE
  * @retval None
  */
__STATIC_INLINE void LL_I2C_HandleTransfer(I2C_TypeDef *I2Cx, uint32_t SlaveAddr, uint32_t SlaveAddrSize,
                                           uint32_t TransferSize, uint32_t EndMode, uint32_t Request)
{
 8000b58:	b480      	push	{r7}
 8000b5a:	b085      	sub	sp, #20
 8000b5c:	af00      	add	r7, sp, #0
 8000b5e:	60f8      	str	r0, [r7, #12]
 8000b60:	60b9      	str	r1, [r7, #8]
 8000b62:	607a      	str	r2, [r7, #4]
 8000b64:	603b      	str	r3, [r7, #0]
  MODIFY_REG(I2Cx->CR2, I2C_CR2_SADD | I2C_CR2_ADD10 |
 8000b66:	68fb      	ldr	r3, [r7, #12]
 8000b68:	685a      	ldr	r2, [r3, #4]
 8000b6a:	69fb      	ldr	r3, [r7, #28]
 8000b6c:	0d5b      	lsrs	r3, r3, #21
 8000b6e:	f403 6180 	and.w	r1, r3, #1024	; 0x400
 8000b72:	4b0b      	ldr	r3, [pc, #44]	; (8000ba0 <LL_I2C_HandleTransfer+0x48>)
 8000b74:	430b      	orrs	r3, r1
 8000b76:	43db      	mvns	r3, r3
 8000b78:	401a      	ands	r2, r3
 8000b7a:	68b9      	ldr	r1, [r7, #8]
 8000b7c:	687b      	ldr	r3, [r7, #4]
 8000b7e:	4319      	orrs	r1, r3
 8000b80:	683b      	ldr	r3, [r7, #0]
 8000b82:	041b      	lsls	r3, r3, #16
 8000b84:	4319      	orrs	r1, r3
 8000b86:	69bb      	ldr	r3, [r7, #24]
 8000b88:	4319      	orrs	r1, r3
 8000b8a:	69fb      	ldr	r3, [r7, #28]
 8000b8c:	430b      	orrs	r3, r1
 8000b8e:	431a      	orrs	r2, r3
 8000b90:	68fb      	ldr	r3, [r7, #12]
 8000b92:	605a      	str	r2, [r3, #4]
             (I2C_CR2_RD_WRN & (uint32_t)(Request >> (31U - I2C_CR2_RD_WRN_Pos))) |
             I2C_CR2_START | I2C_CR2_STOP | I2C_CR2_RELOAD |
             I2C_CR2_NBYTES | I2C_CR2_AUTOEND | I2C_CR2_HEAD10R,
             SlaveAddr | SlaveAddrSize | (TransferSize << I2C_CR2_NBYTES_Pos) | EndMode | Request);
}
 8000b94:	bf00      	nop
 8000b96:	3714      	adds	r7, #20
 8000b98:	46bd      	mov	sp, r7
 8000b9a:	f85d 7b04 	ldr.w	r7, [sp], #4
 8000b9e:	4770      	bx	lr
 8000ba0:	03ff7bff 	.word	0x03ff7bff

08000ba4 <LL_I2C_ReceiveData8>:
  * @rmtoll RXDR         RXDATA        LL_I2C_ReceiveData8
  * @param  I2Cx I2C Instance.
  * @retval Value between Min_Data=0x00 and Max_Data=0xFF
  */
__STATIC_INLINE uint8_t LL_I2C_ReceiveData8(I2C_TypeDef *I2Cx)
{
 8000ba4:	b480      	push	{r7}
 8000ba6:	b083      	sub	sp, #12
 8000ba8:	af00      	add	r7, sp, #0
 8000baa:	6078      	str	r0, [r7, #4]
  return (uint8_t)(READ_BIT(I2Cx->RXDR, I2C_RXDR_RXDATA));
 8000bac:	687b      	ldr	r3, [r7, #4]
 8000bae:	6a5b      	ldr	r3, [r3, #36]	; 0x24
 8000bb0:	b2db      	uxtb	r3, r3
}
 8000bb2:	4618      	mov	r0, r3
 8000bb4:	370c      	adds	r7, #12
 8000bb6:	46bd      	mov	sp, r7
 8000bb8:	f85d 7b04 	ldr.w	r7, [sp], #4
 8000bbc:	4770      	bx	lr

08000bbe <LL_I2C_TransmitData8>:
  * @param  I2Cx I2C Instance.
  * @param  Data Value between Min_Data=0x00 and Max_Data=0xFF
  * @retval None
  */
__STATIC_INLINE void LL_I2C_TransmitData8(I2C_TypeDef *I2Cx, uint8_t Data)
{
 8000bbe:	b480      	push	{r7}
 8000bc0:	b083      	sub	sp, #12
 8000bc2:	af00      	add	r7, sp, #0
 8000bc4:	6078      	str	r0, [r7, #4]
 8000bc6:	460b      	mov	r3, r1
 8000bc8:	70fb      	strb	r3, [r7, #3]
  WRITE_REG(I2Cx->TXDR, Data);
 8000bca:	78fa      	ldrb	r2, [r7, #3]
 8000bcc:	687b      	ldr	r3, [r7, #4]
 8000bce:	629a      	str	r2, [r3, #40]	; 0x28
}
 8000bd0:	bf00      	nop
 8000bd2:	370c      	adds	r7, #12
 8000bd4:	46bd      	mov	sp, r7
 8000bd6:	f85d 7b04 	ldr.w	r7, [sp], #4
 8000bda:	4770      	bx	lr

08000bdc <LL_AHB1_GRP1_EnableClock>:
{
 8000bdc:	b480      	push	{r7}
 8000bde:	b085      	sub	sp, #20
 8000be0:	af00      	add	r7, sp, #0
 8000be2:	6078      	str	r0, [r7, #4]
  SET_BIT(RCC->AHBENR, Periphs);
 8000be4:	4b08      	ldr	r3, [pc, #32]	; (8000c08 <LL_AHB1_GRP1_EnableClock+0x2c>)
 8000be6:	695a      	ldr	r2, [r3, #20]
 8000be8:	4907      	ldr	r1, [pc, #28]	; (8000c08 <LL_AHB1_GRP1_EnableClock+0x2c>)
 8000bea:	687b      	ldr	r3, [r7, #4]
 8000bec:	4313      	orrs	r3, r2
 8000bee:	614b      	str	r3, [r1, #20]
  tmpreg = READ_BIT(RCC->AHBENR, Periphs);
 8000bf0:	4b05      	ldr	r3, [pc, #20]	; (8000c08 <LL_AHB1_GRP1_EnableClock+0x2c>)
 8000bf2:	695a      	ldr	r2, [r3, #20]
 8000bf4:	687b      	ldr	r3, [r7, #4]
 8000bf6:	4013      	ands	r3, r2
 8000bf8:	60fb      	str	r3, [r7, #12]
  (void)tmpreg;
 8000bfa:	68fb      	ldr	r3, [r7, #12]
}
 8000bfc:	bf00      	nop
 8000bfe:	3714      	adds	r7, #20
 8000c00:	46bd      	mov	sp, r7
 8000c02:	f85d 7b04 	ldr.w	r7, [sp], #4
 8000c06:	4770      	bx	lr
 8000c08:	40021000 	.word	0x40021000

08000c0c <LL_APB1_GRP1_EnableClock>:
  *
  *         (*) value not defined in all devices.
  * @retval None
*/
__STATIC_INLINE void LL_APB1_GRP1_EnableClock(uint32_t Periphs)
{
 8000c0c:	b480      	push	{r7}
 8000c0e:	b085      	sub	sp, #20
 8000c10:	af00      	add	r7, sp, #0
 8000c12:	6078      	str	r0, [r7, #4]
  __IO uint32_t tmpreg;
  SET_BIT(RCC->APB1ENR, Periphs);
 8000c14:	4b08      	ldr	r3, [pc, #32]	; (8000c38 <LL_APB1_GRP1_EnableClock+0x2c>)
 8000c16:	69da      	ldr	r2, [r3, #28]
 8000c18:	4907      	ldr	r1, [pc, #28]	; (8000c38 <LL_APB1_GRP1_EnableClock+0x2c>)
 8000c1a:	687b      	ldr	r3, [r7, #4]
 8000c1c:	4313      	orrs	r3, r2
 8000c1e:	61cb      	str	r3, [r1, #28]
  /* Delay after an RCC peripheral clock enabling */
  tmpreg = READ_BIT(RCC->APB1ENR, Periphs);
 8000c20:	4b05      	ldr	r3, [pc, #20]	; (8000c38 <LL_APB1_GRP1_EnableClock+0x2c>)
 8000c22:	69da      	ldr	r2, [r3, #28]
 8000c24:	687b      	ldr	r3, [r7, #4]
 8000c26:	4013      	ands	r3, r2
 8000c28:	60fb      	str	r3, [r7, #12]
  (void)tmpreg;
 8000c2a:	68fb      	ldr	r3, [r7, #12]
}
 8000c2c:	bf00      	nop
 8000c2e:	3714      	adds	r7, #20
 8000c30:	46bd      	mov	sp, r7
 8000c32:	f85d 7b04 	ldr.w	r7, [sp], #4
 8000c36:	4770      	bx	lr
 8000c38:	40021000 	.word	0x40021000

08000c3c <MX_I2C1_Init>:
volatile uint8_t ubReceiveIndex = 0;
/* USER CODE END 0 */

/* I2C1 init function */
void MX_I2C1_Init(void)
{
 8000c3c:	b580      	push	{r7, lr}
 8000c3e:	b08e      	sub	sp, #56	; 0x38
 8000c40:	af00      	add	r7, sp, #0

  /* USER CODE BEGIN I2C1_Init 0 */

  /* USER CODE END I2C1_Init 0 */

  LL_I2C_InitTypeDef I2C_InitStruct = {0};
 8000c42:	f107 031c 	add.w	r3, r7, #28
 8000c46:	2200      	movs	r2, #0
 8000c48:	601a      	str	r2, [r3, #0]
 8000c4a:	605a      	str	r2, [r3, #4]
 8000c4c:	609a      	str	r2, [r3, #8]
 8000c4e:	60da      	str	r2, [r3, #12]
 8000c50:	611a      	str	r2, [r3, #16]
 8000c52:	615a      	str	r2, [r3, #20]
 8000c54:	619a      	str	r2, [r3, #24]

  LL_GPIO_InitTypeDef GPIO_InitStruct = {0};
 8000c56:	1d3b      	adds	r3, r7, #4
 8000c58:	2200      	movs	r2, #0
 8000c5a:	601a      	str	r2, [r3, #0]
 8000c5c:	605a      	str	r2, [r3, #4]
 8000c5e:	609a      	str	r2, [r3, #8]
 8000c60:	60da      	str	r2, [r3, #12]
 8000c62:	611a      	str	r2, [r3, #16]
 8000c64:	615a      	str	r2, [r3, #20]

  LL_AHB1_GRP1_EnableClock(LL_AHB1_GRP1_PERIPH_GPIOB);
 8000c66:	f44f 2080 	mov.w	r0, #262144	; 0x40000
 8000c6a:	f7ff ffb7 	bl	8000bdc <LL_AHB1_GRP1_EnableClock>
  /**I2C1 GPIO Configuration
  PB6   ------> I2C1_SCL
  PB7   ------> I2C1_SDA
  */
  GPIO_InitStruct.Pin = LL_GPIO_PIN_6|LL_GPIO_PIN_7;
 8000c6e:	23c0      	movs	r3, #192	; 0xc0
 8000c70:	607b      	str	r3, [r7, #4]
  GPIO_InitStruct.Mode = LL_GPIO_MODE_ALTERNATE;
 8000c72:	2302      	movs	r3, #2
 8000c74:	60bb      	str	r3, [r7, #8]
  GPIO_InitStruct.Speed = LL_GPIO_SPEED_FREQ_HIGH;
 8000c76:	2303      	movs	r3, #3
 8000c78:	60fb      	str	r3, [r7, #12]
  GPIO_InitStruct.OutputType = LL_GPIO_OUTPUT_OPENDRAIN;
 8000c7a:	2301      	movs	r3, #1
 8000c7c:	613b      	str	r3, [r7, #16]
  GPIO_InitStruct.Pull = LL_GPIO_PULL_UP;
 8000c7e:	2301      	movs	r3, #1
 8000c80:	617b      	str	r3, [r7, #20]
  GPIO_InitStruct.Alternate = LL_GPIO_AF_4;
 8000c82:	2304      	movs	r3, #4
 8000c84:	61bb      	str	r3, [r7, #24]
  LL_GPIO_Init(GPIOB, &GPIO_InitStruct);
 8000c86:	1d3b      	adds	r3, r7, #4
 8000c88:	4619      	mov	r1, r3
 8000c8a:	4821      	ldr	r0, [pc, #132]	; (8000d10 <MX_I2C1_Init+0xd4>)
 8000c8c:	f001 f982 	bl	8001f94 <LL_GPIO_Init>

  /* Peripheral clock enable */
  LL_APB1_GRP1_EnableClock(LL_APB1_GRP1_PERIPH_I2C1);
 8000c90:	f44f 1000 	mov.w	r0, #2097152	; 0x200000
 8000c94:	f7ff ffba 	bl	8000c0c <LL_APB1_GRP1_EnableClock>

  /* I2C1 interrupt Init */
  NVIC_SetPriority(I2C1_EV_IRQn, NVIC_EncodePriority(NVIC_GetPriorityGrouping(),0, 0));
 8000c98:	f7ff fe04 	bl	80008a4 <__NVIC_GetPriorityGrouping>
 8000c9c:	4603      	mov	r3, r0
 8000c9e:	2200      	movs	r2, #0
 8000ca0:	2100      	movs	r1, #0
 8000ca2:	4618      	mov	r0, r3
 8000ca4:	f7ff fe54 	bl	8000950 <NVIC_EncodePriority>
 8000ca8:	4603      	mov	r3, r0
 8000caa:	4619      	mov	r1, r3
 8000cac:	201f      	movs	r0, #31
 8000cae:	f7ff fe25 	bl	80008fc <__NVIC_SetPriority>
  NVIC_EnableIRQ(I2C1_EV_IRQn);
 8000cb2:	201f      	movs	r0, #31
 8000cb4:	f7ff fe04 	bl	80008c0 <__NVIC_EnableIRQ>
  /* USER CODE BEGIN I2C1_Init 1 */

  /* USER CODE END I2C1_Init 1 */
  /** I2C Initialization
  */
  LL_I2C_EnableAutoEndMode(I2C1);
 8000cb8:	4816      	ldr	r0, [pc, #88]	; (8000d14 <MX_I2C1_Init+0xd8>)
 8000cba:	f7ff ff3d 	bl	8000b38 <LL_I2C_EnableAutoEndMode>
  LL_I2C_DisableOwnAddress2(I2C1);
 8000cbe:	4815      	ldr	r0, [pc, #84]	; (8000d14 <MX_I2C1_Init+0xd8>)
 8000cc0:	f7ff fec1 	bl	8000a46 <LL_I2C_DisableOwnAddress2>
  LL_I2C_DisableGeneralCall(I2C1);
 8000cc4:	4813      	ldr	r0, [pc, #76]	; (8000d14 <MX_I2C1_Init+0xd8>)
 8000cc6:	f7ff fe96 	bl	80009f6 <LL_I2C_DisableGeneralCall>
  LL_I2C_EnableClockStretching(I2C1);
 8000cca:	4812      	ldr	r0, [pc, #72]	; (8000d14 <MX_I2C1_Init+0xd8>)
 8000ccc:	f7ff fe83 	bl	80009d6 <LL_I2C_EnableClockStretching>
  I2C_InitStruct.PeripheralMode = LL_I2C_MODE_I2C;
 8000cd0:	2300      	movs	r3, #0
 8000cd2:	61fb      	str	r3, [r7, #28]
  I2C_InitStruct.Timing = 0x2000090E;
 8000cd4:	4b10      	ldr	r3, [pc, #64]	; (8000d18 <MX_I2C1_Init+0xdc>)
 8000cd6:	623b      	str	r3, [r7, #32]
  I2C_InitStruct.AnalogFilter = LL_I2C_ANALOGFILTER_ENABLE;
 8000cd8:	2300      	movs	r3, #0
 8000cda:	627b      	str	r3, [r7, #36]	; 0x24
  I2C_InitStruct.DigitalFilter = 0;
 8000cdc:	2300      	movs	r3, #0
 8000cde:	62bb      	str	r3, [r7, #40]	; 0x28
  I2C_InitStruct.OwnAddress1 = 2;
 8000ce0:	2302      	movs	r3, #2
 8000ce2:	62fb      	str	r3, [r7, #44]	; 0x2c
  I2C_InitStruct.TypeAcknowledge = LL_I2C_ACK;
 8000ce4:	2300      	movs	r3, #0
 8000ce6:	633b      	str	r3, [r7, #48]	; 0x30
  I2C_InitStruct.OwnAddrSize = LL_I2C_OWNADDRESS1_7BIT;
 8000ce8:	2300      	movs	r3, #0
 8000cea:	637b      	str	r3, [r7, #52]	; 0x34
  LL_I2C_Init(I2C1, &I2C_InitStruct);
 8000cec:	f107 031c 	add.w	r3, r7, #28
 8000cf0:	4619      	mov	r1, r3
 8000cf2:	4808      	ldr	r0, [pc, #32]	; (8000d14 <MX_I2C1_Init+0xd8>)
 8000cf4:	f001 fa61 	bl	80021ba <LL_I2C_Init>
  LL_I2C_SetOwnAddress2(I2C1, 0, LL_I2C_OWNADDRESS2_NOMASK);
 8000cf8:	2200      	movs	r2, #0
 8000cfa:	2100      	movs	r1, #0
 8000cfc:	4805      	ldr	r0, [pc, #20]	; (8000d14 <MX_I2C1_Init+0xd8>)
 8000cfe:	f7ff fe8a 	bl	8000a16 <LL_I2C_SetOwnAddress2>
  /* USER CODE BEGIN I2C1_Init 2 */
  LL_I2C_Enable(I2C1);
 8000d02:	4804      	ldr	r0, [pc, #16]	; (8000d14 <MX_I2C1_Init+0xd8>)
 8000d04:	f7ff fe57 	bl	80009b6 <LL_I2C_Enable>
  /* USER CODE END I2C1_Init 2 */

}
 8000d08:	bf00      	nop
 8000d0a:	3738      	adds	r7, #56	; 0x38
 8000d0c:	46bd      	mov	sp, r7
 8000d0e:	bd80      	pop	{r7, pc}
 8000d10:	48000400 	.word	0x48000400
 8000d14:	40005400 	.word	0x40005400
 8000d18:	2000090e 	.word	0x2000090e

08000d1c <i2c_master_read>:
	LL_I2C_ClearFlag_STOP(I2C1);
}


uint8_t* i2c_master_read(uint8_t* buffer, uint8_t length, uint8_t register_addr, uint8_t slave_addr, uint8_t read_flag)
{
 8000d1c:	b580      	push	{r7, lr}
 8000d1e:	b084      	sub	sp, #16
 8000d20:	af02      	add	r7, sp, #8
 8000d22:	6078      	str	r0, [r7, #4]
 8000d24:	4608      	mov	r0, r1
 8000d26:	4611      	mov	r1, r2
 8000d28:	461a      	mov	r2, r3
 8000d2a:	4603      	mov	r3, r0
 8000d2c:	70fb      	strb	r3, [r7, #3]
 8000d2e:	460b      	mov	r3, r1
 8000d30:	70bb      	strb	r3, [r7, #2]
 8000d32:	4613      	mov	r3, r2
 8000d34:	707b      	strb	r3, [r7, #1]
	aReceiveBuffer_read = buffer;
 8000d36:	4a30      	ldr	r2, [pc, #192]	; (8000df8 <i2c_master_read+0xdc>)
 8000d38:	687b      	ldr	r3, [r7, #4]
 8000d3a:	6013      	str	r3, [r2, #0]

	if(read_flag)
 8000d3c:	7c3b      	ldrb	r3, [r7, #16]
 8000d3e:	2b00      	cmp	r3, #0
 8000d40:	d003      	beq.n	8000d4a <i2c_master_read+0x2e>
	{
		register_addr |= (1 << 7);
 8000d42:	78bb      	ldrb	r3, [r7, #2]
 8000d44:	f063 037f 	orn	r3, r3, #127	; 0x7f
 8000d48:	70bb      	strb	r3, [r7, #2]
	}

	end_of_read_flag = 0;
 8000d4a:	4b2c      	ldr	r3, [pc, #176]	; (8000dfc <i2c_master_read+0xe0>)
 8000d4c:	2200      	movs	r2, #0
 8000d4e:	701a      	strb	r2, [r3, #0]

	LL_I2C_EnableIT_RX(I2C1);
 8000d50:	482b      	ldr	r0, [pc, #172]	; (8000e00 <i2c_master_read+0xe4>)
 8000d52:	f7ff fe88 	bl	8000a66 <LL_I2C_EnableIT_RX>

	//poziadam slejva o citanie z jeho registra
	LL_I2C_HandleTransfer(I2C1, slave_addr, LL_I2C_ADDRSLAVE_7BIT, 1, LL_I2C_MODE_AUTOEND, LL_I2C_GENERATE_START_WRITE);
 8000d56:	7879      	ldrb	r1, [r7, #1]
 8000d58:	4b2a      	ldr	r3, [pc, #168]	; (8000e04 <i2c_master_read+0xe8>)
 8000d5a:	9301      	str	r3, [sp, #4]
 8000d5c:	f04f 7300 	mov.w	r3, #33554432	; 0x2000000
 8000d60:	9300      	str	r3, [sp, #0]
 8000d62:	2301      	movs	r3, #1
 8000d64:	2200      	movs	r2, #0
 8000d66:	4826      	ldr	r0, [pc, #152]	; (8000e00 <i2c_master_read+0xe4>)
 8000d68:	f7ff fef6 	bl	8000b58 <LL_I2C_HandleTransfer>

	while(!LL_I2C_IsActiveFlag_STOP(I2C1))
 8000d6c:	e00a      	b.n	8000d84 <i2c_master_read+0x68>
	{
		if(LL_I2C_IsActiveFlag_TXIS(I2C1))
 8000d6e:	4824      	ldr	r0, [pc, #144]	; (8000e00 <i2c_master_read+0xe4>)
 8000d70:	f7ff fe99 	bl	8000aa6 <LL_I2C_IsActiveFlag_TXIS>
 8000d74:	4603      	mov	r3, r0
 8000d76:	2b00      	cmp	r3, #0
 8000d78:	d004      	beq.n	8000d84 <i2c_master_read+0x68>
		{
			LL_I2C_TransmitData8(I2C1, register_addr); //adresa, ktoru chceme citat - posielame do slave zariadenia
 8000d7a:	78bb      	ldrb	r3, [r7, #2]
 8000d7c:	4619      	mov	r1, r3
 8000d7e:	4820      	ldr	r0, [pc, #128]	; (8000e00 <i2c_master_read+0xe4>)
 8000d80:	f7ff ff1d 	bl	8000bbe <LL_I2C_TransmitData8>
	while(!LL_I2C_IsActiveFlag_STOP(I2C1))
 8000d84:	481e      	ldr	r0, [pc, #120]	; (8000e00 <i2c_master_read+0xe4>)
 8000d86:	f7ff feb4 	bl	8000af2 <LL_I2C_IsActiveFlag_STOP>
 8000d8a:	4603      	mov	r3, r0
 8000d8c:	2b00      	cmp	r3, #0
 8000d8e:	d0ee      	beq.n	8000d6e <i2c_master_read+0x52>
		}
	}
	LL_I2C_ClearFlag_STOP(I2C1);
 8000d90:	481b      	ldr	r0, [pc, #108]	; (8000e00 <i2c_master_read+0xe4>)
 8000d92:	f7ff fec1 	bl	8000b18 <LL_I2C_ClearFlag_STOP>
	while(LL_I2C_IsActiveFlag_STOP(I2C1)){}
 8000d96:	bf00      	nop
 8000d98:	4819      	ldr	r0, [pc, #100]	; (8000e00 <i2c_master_read+0xe4>)
 8000d9a:	f7ff feaa 	bl	8000af2 <LL_I2C_IsActiveFlag_STOP>
 8000d9e:	4603      	mov	r3, r0
 8000da0:	2b00      	cmp	r3, #0
 8000da2:	d1f9      	bne.n	8000d98 <i2c_master_read+0x7c>

	//citam register od slejva, LL_I2C_HandleTransfer- dolezita funkcia
	LL_I2C_HandleTransfer(I2C1, slave_addr, LL_I2C_ADDRSLAVE_7BIT, length, LL_I2C_MODE_AUTOEND, LL_I2C_GENERATE_START_READ);
 8000da4:	7879      	ldrb	r1, [r7, #1]
 8000da6:	78fb      	ldrb	r3, [r7, #3]
 8000da8:	4a17      	ldr	r2, [pc, #92]	; (8000e08 <i2c_master_read+0xec>)
 8000daa:	9201      	str	r2, [sp, #4]
 8000dac:	f04f 7200 	mov.w	r2, #33554432	; 0x2000000
 8000db0:	9200      	str	r2, [sp, #0]
 8000db2:	2200      	movs	r2, #0
 8000db4:	4812      	ldr	r0, [pc, #72]	; (8000e00 <i2c_master_read+0xe4>)
 8000db6:	f7ff fecf 	bl	8000b58 <LL_I2C_HandleTransfer>

	while(!LL_I2C_IsActiveFlag_STOP(I2C1)){};
 8000dba:	bf00      	nop
 8000dbc:	4810      	ldr	r0, [pc, #64]	; (8000e00 <i2c_master_read+0xe4>)
 8000dbe:	f7ff fe98 	bl	8000af2 <LL_I2C_IsActiveFlag_STOP>
 8000dc2:	4603      	mov	r3, r0
 8000dc4:	2b00      	cmp	r3, #0
 8000dc6:	d0f9      	beq.n	8000dbc <i2c_master_read+0xa0>

	//End of transfer
	LL_I2C_ClearFlag_STOP(I2C1);
 8000dc8:	480d      	ldr	r0, [pc, #52]	; (8000e00 <i2c_master_read+0xe4>)
 8000dca:	f7ff fea5 	bl	8000b18 <LL_I2C_ClearFlag_STOP>
	LL_I2C_DisableIT_RX(I2C1);
 8000dce:	480c      	ldr	r0, [pc, #48]	; (8000e00 <i2c_master_read+0xe4>)
 8000dd0:	f7ff fe59 	bl	8000a86 <LL_I2C_DisableIT_RX>
	I2C1->ICR |= (1 << 4);
 8000dd4:	4b0a      	ldr	r3, [pc, #40]	; (8000e00 <i2c_master_read+0xe4>)
 8000dd6:	69db      	ldr	r3, [r3, #28]
 8000dd8:	4a09      	ldr	r2, [pc, #36]	; (8000e00 <i2c_master_read+0xe4>)
 8000dda:	f043 0310 	orr.w	r3, r3, #16
 8000dde:	61d3      	str	r3, [r2, #28]
	ubReceiveIndex = 0;
 8000de0:	4b0a      	ldr	r3, [pc, #40]	; (8000e0c <i2c_master_read+0xf0>)
 8000de2:	2200      	movs	r2, #0
 8000de4:	701a      	strb	r2, [r3, #0]
	end_of_read_flag = 1;
 8000de6:	4b05      	ldr	r3, [pc, #20]	; (8000dfc <i2c_master_read+0xe0>)
 8000de8:	2201      	movs	r2, #1
 8000dea:	701a      	strb	r2, [r3, #0]

	return aReceiveBuffer_read;
 8000dec:	4b02      	ldr	r3, [pc, #8]	; (8000df8 <i2c_master_read+0xdc>)
 8000dee:	681b      	ldr	r3, [r3, #0]
}
 8000df0:	4618      	mov	r0, r3
 8000df2:	3708      	adds	r7, #8
 8000df4:	46bd      	mov	sp, r7
 8000df6:	bd80      	pop	{r7, pc}
 8000df8:	20000044 	.word	0x20000044
 8000dfc:	20000038 	.word	0x20000038
 8000e00:	40005400 	.word	0x40005400
 8000e04:	80002000 	.word	0x80002000
 8000e08:	80002400 	.word	0x80002400
 8000e0c:	20000039 	.word	0x20000039

08000e10 <I2C1_EV_IRQHandler_fun>:


void I2C1_EV_IRQHandler_fun(void)
{
 8000e10:	b598      	push	{r3, r4, r7, lr}
 8000e12:	af00      	add	r7, sp, #0
	/* Check RXNE flag value in ISR register */
	if(LL_I2C_IsActiveFlag_RXNE(I2C1))
 8000e14:	4812      	ldr	r0, [pc, #72]	; (8000e60 <I2C1_EV_IRQHandler_fun+0x50>)
 8000e16:	f7ff fe59 	bl	8000acc <LL_I2C_IsActiveFlag_RXNE>
 8000e1a:	4603      	mov	r3, r0
 8000e1c:	2b00      	cmp	r3, #0
 8000e1e:	d01c      	beq.n	8000e5a <I2C1_EV_IRQHandler_fun+0x4a>
	{
		/* Call function Master Reception Callback */
		aReceiveBuffer_read[ubReceiveIndex++] = LL_I2C_ReceiveData8(I2C1);
 8000e20:	4b10      	ldr	r3, [pc, #64]	; (8000e64 <I2C1_EV_IRQHandler_fun+0x54>)
 8000e22:	681a      	ldr	r2, [r3, #0]
 8000e24:	4b10      	ldr	r3, [pc, #64]	; (8000e68 <I2C1_EV_IRQHandler_fun+0x58>)
 8000e26:	781b      	ldrb	r3, [r3, #0]
 8000e28:	b2db      	uxtb	r3, r3
 8000e2a:	1c59      	adds	r1, r3, #1
 8000e2c:	b2c8      	uxtb	r0, r1
 8000e2e:	490e      	ldr	r1, [pc, #56]	; (8000e68 <I2C1_EV_IRQHandler_fun+0x58>)
 8000e30:	7008      	strb	r0, [r1, #0]
 8000e32:	18d4      	adds	r4, r2, r3
 8000e34:	480a      	ldr	r0, [pc, #40]	; (8000e60 <I2C1_EV_IRQHandler_fun+0x50>)
 8000e36:	f7ff feb5 	bl	8000ba4 <LL_I2C_ReceiveData8>
 8000e3a:	4603      	mov	r3, r0
 8000e3c:	7023      	strb	r3, [r4, #0]
		(ubReceiveIndex > 19) ? ubReceiveIndex = 0 : ubReceiveIndex;
 8000e3e:	4b0a      	ldr	r3, [pc, #40]	; (8000e68 <I2C1_EV_IRQHandler_fun+0x58>)
 8000e40:	781b      	ldrb	r3, [r3, #0]
 8000e42:	b2db      	uxtb	r3, r3
 8000e44:	2b13      	cmp	r3, #19
 8000e46:	d903      	bls.n	8000e50 <I2C1_EV_IRQHandler_fun+0x40>
 8000e48:	4b07      	ldr	r3, [pc, #28]	; (8000e68 <I2C1_EV_IRQHandler_fun+0x58>)
 8000e4a:	2200      	movs	r2, #0
 8000e4c:	701a      	strb	r2, [r3, #0]
 8000e4e:	e001      	b.n	8000e54 <I2C1_EV_IRQHandler_fun+0x44>
 8000e50:	4b05      	ldr	r3, [pc, #20]	; (8000e68 <I2C1_EV_IRQHandler_fun+0x58>)
 8000e52:	781b      	ldrb	r3, [r3, #0]
		end_of_read_flag = 0;
 8000e54:	4b05      	ldr	r3, [pc, #20]	; (8000e6c <I2C1_EV_IRQHandler_fun+0x5c>)
 8000e56:	2200      	movs	r2, #0
 8000e58:	701a      	strb	r2, [r3, #0]
	}
}
 8000e5a:	bf00      	nop
 8000e5c:	bd98      	pop	{r3, r4, r7, pc}
 8000e5e:	bf00      	nop
 8000e60:	40005400 	.word	0x40005400
 8000e64:	20000044 	.word	0x20000044
 8000e68:	20000039 	.word	0x20000039
 8000e6c:	20000038 	.word	0x20000038

08000e70 <lps25hb_init>:
#include "iks01a1.h"

uint8_t data = 0;

uint8_t lps25hb_init(void){
 8000e70:	b580      	push	{r7, lr}
 8000e72:	b082      	sub	sp, #8
 8000e74:	af00      	add	r7, sp, #0
	LL_mDelay(100);
 8000e76:	2064      	movs	r0, #100	; 0x64
 8000e78:	f001 fdfe 	bl	8002a78 <LL_mDelay>
	uint8_t val = lps25hb_read_byte(LPS25HB_WHO_AM_I_ADDRES);
 8000e7c:	200f      	movs	r0, #15
 8000e7e:	f000 f819 	bl	8000eb4 <lps25hb_read_byte>
 8000e82:	4603      	mov	r3, r0
 8000e84:	71fb      	strb	r3, [r7, #7]
	//val = lsm6ds0_read_byte(LSM6DS0_WHO_AM_I_ADDRES);

	if(!(val == LPS25HB_WHO_AM_I_VALUE))
 8000e86:	79fb      	ldrb	r3, [r7, #7]
 8000e88:	2bbd      	cmp	r3, #189	; 0xbd
 8000e8a:	d001      	beq.n	8000e90 <lps25hb_init+0x20>
	{
		return 0; //bad who am I value
 8000e8c:	2300      	movs	r3, #0
 8000e8e:	e00d      	b.n	8000eac <lps25hb_init+0x3c>
	}

	LL_mDelay(100);
 8000e90:	2064      	movs	r0, #100	; 0x64
 8000e92:	f001 fdf1 	bl	8002a78 <LL_mDelay>
	val = hts221_read_byte(HTS221_WHO_AM_I_ADDRES);
 8000e96:	200f      	movs	r0, #15
 8000e98:	f000 f824 	bl	8000ee4 <hts221_read_byte>
 8000e9c:	4603      	mov	r3, r0
 8000e9e:	71fb      	strb	r3, [r7, #7]

	if(!(val == HTS221_WHO_AM_I_VALUE))
 8000ea0:	79fb      	ldrb	r3, [r7, #7]
 8000ea2:	2bbc      	cmp	r3, #188	; 0xbc
 8000ea4:	d001      	beq.n	8000eaa <lps25hb_init+0x3a>
	{
		return 0; //bad who am I value
 8000ea6:	2300      	movs	r3, #0
 8000ea8:	e000      	b.n	8000eac <lps25hb_init+0x3c>
	}
	return 1;
 8000eaa:	2301      	movs	r3, #1
}
 8000eac:	4618      	mov	r0, r3
 8000eae:	3708      	adds	r7, #8
 8000eb0:	46bd      	mov	sp, r7
 8000eb2:	bd80      	pop	{r7, pc}

08000eb4 <lps25hb_read_byte>:

uint8_t lps25hb_read_byte(uint8_t reg_addr) {
 8000eb4:	b580      	push	{r7, lr}
 8000eb6:	b084      	sub	sp, #16
 8000eb8:	af02      	add	r7, sp, #8
 8000eba:	4603      	mov	r3, r0
 8000ebc:	71fb      	strb	r3, [r7, #7]
	data = 0;
 8000ebe:	4b08      	ldr	r3, [pc, #32]	; (8000ee0 <lps25hb_read_byte+0x2c>)
 8000ec0:	2200      	movs	r2, #0
 8000ec2:	701a      	strb	r2, [r3, #0]
	return *(i2c_master_read(&data, 1, reg_addr, LPS25HB_DEVICE_ADDRESS, 0));
 8000ec4:	79fa      	ldrb	r2, [r7, #7]
 8000ec6:	2300      	movs	r3, #0
 8000ec8:	9300      	str	r3, [sp, #0]
 8000eca:	23bb      	movs	r3, #187	; 0xbb
 8000ecc:	2101      	movs	r1, #1
 8000ece:	4804      	ldr	r0, [pc, #16]	; (8000ee0 <lps25hb_read_byte+0x2c>)
 8000ed0:	f7ff ff24 	bl	8000d1c <i2c_master_read>
 8000ed4:	4603      	mov	r3, r0
 8000ed6:	781b      	ldrb	r3, [r3, #0]
}
 8000ed8:	4618      	mov	r0, r3
 8000eda:	3708      	adds	r7, #8
 8000edc:	46bd      	mov	sp, r7
 8000ede:	bd80      	pop	{r7, pc}
 8000ee0:	2000003a 	.word	0x2000003a

08000ee4 <hts221_read_byte>:

uint8_t hts221_read_byte(uint8_t reg_addr) {
 8000ee4:	b580      	push	{r7, lr}
 8000ee6:	b084      	sub	sp, #16
 8000ee8:	af02      	add	r7, sp, #8
 8000eea:	4603      	mov	r3, r0
 8000eec:	71fb      	strb	r3, [r7, #7]
	data = 0;
 8000eee:	4b08      	ldr	r3, [pc, #32]	; (8000f10 <hts221_read_byte+0x2c>)
 8000ef0:	2200      	movs	r2, #0
 8000ef2:	701a      	strb	r2, [r3, #0]
	return *(i2c_master_read(&data, 1, reg_addr, HTS221_DEVICE_ADDRESS, 0));
 8000ef4:	79fa      	ldrb	r2, [r7, #7]
 8000ef6:	2300      	movs	r3, #0
 8000ef8:	9300      	str	r3, [sp, #0]
 8000efa:	23be      	movs	r3, #190	; 0xbe
 8000efc:	2101      	movs	r1, #1
 8000efe:	4804      	ldr	r0, [pc, #16]	; (8000f10 <hts221_read_byte+0x2c>)
 8000f00:	f7ff ff0c 	bl	8000d1c <i2c_master_read>
 8000f04:	4603      	mov	r3, r0
 8000f06:	781b      	ldrb	r3, [r3, #0]
}
 8000f08:	4618      	mov	r0, r3
 8000f0a:	3708      	adds	r7, #8
 8000f0c:	46bd      	mov	sp, r7
 8000f0e:	bd80      	pop	{r7, pc}
 8000f10:	2000003a 	.word	0x2000003a

08000f14 <__NVIC_SetPriorityGrouping>:
{
 8000f14:	b480      	push	{r7}
 8000f16:	b085      	sub	sp, #20
 8000f18:	af00      	add	r7, sp, #0
 8000f1a:	6078      	str	r0, [r7, #4]
  uint32_t PriorityGroupTmp = (PriorityGroup & (uint32_t)0x07UL);             /* only values 0..7 are used          */
 8000f1c:	687b      	ldr	r3, [r7, #4]
 8000f1e:	f003 0307 	and.w	r3, r3, #7
 8000f22:	60fb      	str	r3, [r7, #12]
  reg_value  =  SCB->AIRCR;                                                   /* read old register configuration    */
 8000f24:	4b0c      	ldr	r3, [pc, #48]	; (8000f58 <__NVIC_SetPriorityGrouping+0x44>)
 8000f26:	68db      	ldr	r3, [r3, #12]
 8000f28:	60bb      	str	r3, [r7, #8]
  reg_value &= ~((uint32_t)(SCB_AIRCR_VECTKEY_Msk | SCB_AIRCR_PRIGROUP_Msk)); /* clear bits to change               */
 8000f2a:	68ba      	ldr	r2, [r7, #8]
 8000f2c:	f64f 03ff 	movw	r3, #63743	; 0xf8ff
 8000f30:	4013      	ands	r3, r2
 8000f32:	60bb      	str	r3, [r7, #8]
                (PriorityGroupTmp << SCB_AIRCR_PRIGROUP_Pos)  );              /* Insert write key and priority group */
 8000f34:	68fb      	ldr	r3, [r7, #12]
 8000f36:	021a      	lsls	r2, r3, #8
                ((uint32_t)0x5FAUL << SCB_AIRCR_VECTKEY_Pos) |
 8000f38:	68bb      	ldr	r3, [r7, #8]
 8000f3a:	4313      	orrs	r3, r2
  reg_value  =  (reg_value                                   |
 8000f3c:	f043 63bf 	orr.w	r3, r3, #100139008	; 0x5f80000
 8000f40:	f443 3300 	orr.w	r3, r3, #131072	; 0x20000
 8000f44:	60bb      	str	r3, [r7, #8]
  SCB->AIRCR =  reg_value;
 8000f46:	4a04      	ldr	r2, [pc, #16]	; (8000f58 <__NVIC_SetPriorityGrouping+0x44>)
 8000f48:	68bb      	ldr	r3, [r7, #8]
 8000f4a:	60d3      	str	r3, [r2, #12]
}
 8000f4c:	bf00      	nop
 8000f4e:	3714      	adds	r7, #20
 8000f50:	46bd      	mov	sp, r7
 8000f52:	f85d 7b04 	ldr.w	r7, [sp], #4
 8000f56:	4770      	bx	lr
 8000f58:	e000ed00 	.word	0xe000ed00

08000f5c <__NVIC_GetPriorityGrouping>:
{
 8000f5c:	b480      	push	{r7}
 8000f5e:	af00      	add	r7, sp, #0
  return ((uint32_t)((SCB->AIRCR & SCB_AIRCR_PRIGROUP_Msk) >> SCB_AIRCR_PRIGROUP_Pos));
 8000f60:	4b04      	ldr	r3, [pc, #16]	; (8000f74 <__NVIC_GetPriorityGrouping+0x18>)
 8000f62:	68db      	ldr	r3, [r3, #12]
 8000f64:	0a1b      	lsrs	r3, r3, #8
 8000f66:	f003 0307 	and.w	r3, r3, #7
}
 8000f6a:	4618      	mov	r0, r3
 8000f6c:	46bd      	mov	sp, r7
 8000f6e:	f85d 7b04 	ldr.w	r7, [sp], #4
 8000f72:	4770      	bx	lr
 8000f74:	e000ed00 	.word	0xe000ed00

08000f78 <__NVIC_SetPriority>:
{
 8000f78:	b480      	push	{r7}
 8000f7a:	b083      	sub	sp, #12
 8000f7c:	af00      	add	r7, sp, #0
 8000f7e:	4603      	mov	r3, r0
 8000f80:	6039      	str	r1, [r7, #0]
 8000f82:	71fb      	strb	r3, [r7, #7]
  if ((int32_t)(IRQn) >= 0)
 8000f84:	f997 3007 	ldrsb.w	r3, [r7, #7]
 8000f88:	2b00      	cmp	r3, #0
 8000f8a:	db0a      	blt.n	8000fa2 <__NVIC_SetPriority+0x2a>
    NVIC->IP[((uint32_t)IRQn)]               = (uint8_t)((priority << (8U - __NVIC_PRIO_BITS)) & (uint32_t)0xFFUL);
 8000f8c:	683b      	ldr	r3, [r7, #0]
 8000f8e:	b2da      	uxtb	r2, r3
 8000f90:	490c      	ldr	r1, [pc, #48]	; (8000fc4 <__NVIC_SetPriority+0x4c>)
 8000f92:	f997 3007 	ldrsb.w	r3, [r7, #7]
 8000f96:	0112      	lsls	r2, r2, #4
 8000f98:	b2d2      	uxtb	r2, r2
 8000f9a:	440b      	add	r3, r1
 8000f9c:	f883 2300 	strb.w	r2, [r3, #768]	; 0x300
}
 8000fa0:	e00a      	b.n	8000fb8 <__NVIC_SetPriority+0x40>
    SCB->SHP[(((uint32_t)IRQn) & 0xFUL)-4UL] = (uint8_t)((priority << (8U - __NVIC_PRIO_BITS)) & (uint32_t)0xFFUL);
 8000fa2:	683b      	ldr	r3, [r7, #0]
 8000fa4:	b2da      	uxtb	r2, r3
 8000fa6:	4908      	ldr	r1, [pc, #32]	; (8000fc8 <__NVIC_SetPriority+0x50>)
 8000fa8:	79fb      	ldrb	r3, [r7, #7]
 8000faa:	f003 030f 	and.w	r3, r3, #15
 8000fae:	3b04      	subs	r3, #4
 8000fb0:	0112      	lsls	r2, r2, #4
 8000fb2:	b2d2      	uxtb	r2, r2
 8000fb4:	440b      	add	r3, r1
 8000fb6:	761a      	strb	r2, [r3, #24]
}
 8000fb8:	bf00      	nop
 8000fba:	370c      	adds	r7, #12
 8000fbc:	46bd      	mov	sp, r7
 8000fbe:	f85d 7b04 	ldr.w	r7, [sp], #4
 8000fc2:	4770      	bx	lr
 8000fc4:	e000e100 	.word	0xe000e100
 8000fc8:	e000ed00 	.word	0xe000ed00

08000fcc <NVIC_EncodePriority>:
{
 8000fcc:	b480      	push	{r7}
 8000fce:	b089      	sub	sp, #36	; 0x24
 8000fd0:	af00      	add	r7, sp, #0
 8000fd2:	60f8      	str	r0, [r7, #12]
 8000fd4:	60b9      	str	r1, [r7, #8]
 8000fd6:	607a      	str	r2, [r7, #4]
  uint32_t PriorityGroupTmp = (PriorityGroup & (uint32_t)0x07UL);   /* only values 0..7 are used          */
 8000fd8:	68fb      	ldr	r3, [r7, #12]
 8000fda:	f003 0307 	and.w	r3, r3, #7
 8000fde:	61fb      	str	r3, [r7, #28]
  PreemptPriorityBits = ((7UL - PriorityGroupTmp) > (uint32_t)(__NVIC_PRIO_BITS)) ? (uint32_t)(__NVIC_PRIO_BITS) : (uint32_t)(7UL - PriorityGroupTmp);
 8000fe0:	69fb      	ldr	r3, [r7, #28]
 8000fe2:	f1c3 0307 	rsb	r3, r3, #7
 8000fe6:	2b04      	cmp	r3, #4
 8000fe8:	bf28      	it	cs
 8000fea:	2304      	movcs	r3, #4
 8000fec:	61bb      	str	r3, [r7, #24]
  SubPriorityBits     = ((PriorityGroupTmp + (uint32_t)(__NVIC_PRIO_BITS)) < (uint32_t)7UL) ? (uint32_t)0UL : (uint32_t)((PriorityGroupTmp - 7UL) + (uint32_t)(__NVIC_PRIO_BITS));
 8000fee:	69fb      	ldr	r3, [r7, #28]
 8000ff0:	3304      	adds	r3, #4
 8000ff2:	2b06      	cmp	r3, #6
 8000ff4:	d902      	bls.n	8000ffc <NVIC_EncodePriority+0x30>
 8000ff6:	69fb      	ldr	r3, [r7, #28]
 8000ff8:	3b03      	subs	r3, #3
 8000ffa:	e000      	b.n	8000ffe <NVIC_EncodePriority+0x32>
 8000ffc:	2300      	movs	r3, #0
 8000ffe:	617b      	str	r3, [r7, #20]
           ((PreemptPriority & (uint32_t)((1UL << (PreemptPriorityBits)) - 1UL)) << SubPriorityBits) |
 8001000:	f04f 32ff 	mov.w	r2, #4294967295
 8001004:	69bb      	ldr	r3, [r7, #24]
 8001006:	fa02 f303 	lsl.w	r3, r2, r3
 800100a:	43da      	mvns	r2, r3
 800100c:	68bb      	ldr	r3, [r7, #8]
 800100e:	401a      	ands	r2, r3
 8001010:	697b      	ldr	r3, [r7, #20]
 8001012:	409a      	lsls	r2, r3
           ((SubPriority     & (uint32_t)((1UL << (SubPriorityBits    )) - 1UL)))
 8001014:	f04f 31ff 	mov.w	r1, #4294967295
 8001018:	697b      	ldr	r3, [r7, #20]
 800101a:	fa01 f303 	lsl.w	r3, r1, r3
 800101e:	43d9      	mvns	r1, r3
 8001020:	687b      	ldr	r3, [r7, #4]
 8001022:	400b      	ands	r3, r1
           ((PreemptPriority & (uint32_t)((1UL << (PreemptPriorityBits)) - 1UL)) << SubPriorityBits) |
 8001024:	4313      	orrs	r3, r2
}
 8001026:	4618      	mov	r0, r3
 8001028:	3724      	adds	r7, #36	; 0x24
 800102a:	46bd      	mov	sp, r7
 800102c:	f85d 7b04 	ldr.w	r7, [sp], #4
 8001030:	4770      	bx	lr
	...

08001034 <LL_RCC_HSI_Enable>:
  * @brief  Enable HSI oscillator
  * @rmtoll CR           HSION         LL_RCC_HSI_Enable
  * @retval None
  */
__STATIC_INLINE void LL_RCC_HSI_Enable(void)
{
 8001034:	b480      	push	{r7}
 8001036:	af00      	add	r7, sp, #0
  SET_BIT(RCC->CR, RCC_CR_HSION);
 8001038:	4b05      	ldr	r3, [pc, #20]	; (8001050 <LL_RCC_HSI_Enable+0x1c>)
 800103a:	681b      	ldr	r3, [r3, #0]
 800103c:	4a04      	ldr	r2, [pc, #16]	; (8001050 <LL_RCC_HSI_Enable+0x1c>)
 800103e:	f043 0301 	orr.w	r3, r3, #1
 8001042:	6013      	str	r3, [r2, #0]
}
 8001044:	bf00      	nop
 8001046:	46bd      	mov	sp, r7
 8001048:	f85d 7b04 	ldr.w	r7, [sp], #4
 800104c:	4770      	bx	lr
 800104e:	bf00      	nop
 8001050:	40021000 	.word	0x40021000

08001054 <LL_RCC_HSI_IsReady>:
  * @brief  Check if HSI clock is ready
  * @rmtoll CR           HSIRDY        LL_RCC_HSI_IsReady
  * @retval State of bit (1 or 0).
  */
__STATIC_INLINE uint32_t LL_RCC_HSI_IsReady(void)
{
 8001054:	b480      	push	{r7}
 8001056:	af00      	add	r7, sp, #0
  return (READ_BIT(RCC->CR, RCC_CR_HSIRDY) == (RCC_CR_HSIRDY));
 8001058:	4b06      	ldr	r3, [pc, #24]	; (8001074 <LL_RCC_HSI_IsReady+0x20>)
 800105a:	681b      	ldr	r3, [r3, #0]
 800105c:	f003 0302 	and.w	r3, r3, #2
 8001060:	2b02      	cmp	r3, #2
 8001062:	bf0c      	ite	eq
 8001064:	2301      	moveq	r3, #1
 8001066:	2300      	movne	r3, #0
 8001068:	b2db      	uxtb	r3, r3
}
 800106a:	4618      	mov	r0, r3
 800106c:	46bd      	mov	sp, r7
 800106e:	f85d 7b04 	ldr.w	r7, [sp], #4
 8001072:	4770      	bx	lr
 8001074:	40021000 	.word	0x40021000

08001078 <LL_RCC_HSI_SetCalibTrimming>:
  * @rmtoll CR        HSITRIM       LL_RCC_HSI_SetCalibTrimming
  * @param  Value between Min_Data = 0x00 and Max_Data = 0x1F
  * @retval None
  */
__STATIC_INLINE void LL_RCC_HSI_SetCalibTrimming(uint32_t Value)
{
 8001078:	b480      	push	{r7}
 800107a:	b083      	sub	sp, #12
 800107c:	af00      	add	r7, sp, #0
 800107e:	6078      	str	r0, [r7, #4]
  MODIFY_REG(RCC->CR, RCC_CR_HSITRIM, Value << RCC_CR_HSITRIM_Pos);
 8001080:	4b07      	ldr	r3, [pc, #28]	; (80010a0 <LL_RCC_HSI_SetCalibTrimming+0x28>)
 8001082:	681b      	ldr	r3, [r3, #0]
 8001084:	f023 02f8 	bic.w	r2, r3, #248	; 0xf8
 8001088:	687b      	ldr	r3, [r7, #4]
 800108a:	00db      	lsls	r3, r3, #3
 800108c:	4904      	ldr	r1, [pc, #16]	; (80010a0 <LL_RCC_HSI_SetCalibTrimming+0x28>)
 800108e:	4313      	orrs	r3, r2
 8001090:	600b      	str	r3, [r1, #0]
}
 8001092:	bf00      	nop
 8001094:	370c      	adds	r7, #12
 8001096:	46bd      	mov	sp, r7
 8001098:	f85d 7b04 	ldr.w	r7, [sp], #4
 800109c:	4770      	bx	lr
 800109e:	bf00      	nop
 80010a0:	40021000 	.word	0x40021000

080010a4 <LL_RCC_SetSysClkSource>:
  *         @arg @ref LL_RCC_SYS_CLKSOURCE_HSE
  *         @arg @ref LL_RCC_SYS_CLKSOURCE_PLL
  * @retval None
  */
__STATIC_INLINE void LL_RCC_SetSysClkSource(uint32_t Source)
{
 80010a4:	b480      	push	{r7}
 80010a6:	b083      	sub	sp, #12
 80010a8:	af00      	add	r7, sp, #0
 80010aa:	6078      	str	r0, [r7, #4]
  MODIFY_REG(RCC->CFGR, RCC_CFGR_SW, Source);
 80010ac:	4b06      	ldr	r3, [pc, #24]	; (80010c8 <LL_RCC_SetSysClkSource+0x24>)
 80010ae:	685b      	ldr	r3, [r3, #4]
 80010b0:	f023 0203 	bic.w	r2, r3, #3
 80010b4:	4904      	ldr	r1, [pc, #16]	; (80010c8 <LL_RCC_SetSysClkSource+0x24>)
 80010b6:	687b      	ldr	r3, [r7, #4]
 80010b8:	4313      	orrs	r3, r2
 80010ba:	604b      	str	r3, [r1, #4]
}
 80010bc:	bf00      	nop
 80010be:	370c      	adds	r7, #12
 80010c0:	46bd      	mov	sp, r7
 80010c2:	f85d 7b04 	ldr.w	r7, [sp], #4
 80010c6:	4770      	bx	lr
 80010c8:	40021000 	.word	0x40021000

080010cc <LL_RCC_GetSysClkSource>:
  *         @arg @ref LL_RCC_SYS_CLKSOURCE_STATUS_HSI
  *         @arg @ref LL_RCC_SYS_CLKSOURCE_STATUS_HSE
  *         @arg @ref LL_RCC_SYS_CLKSOURCE_STATUS_PLL
  */
__STATIC_INLINE uint32_t LL_RCC_GetSysClkSource(void)
{
 80010cc:	b480      	push	{r7}
 80010ce:	af00      	add	r7, sp, #0
  return (uint32_t)(READ_BIT(RCC->CFGR, RCC_CFGR_SWS));
 80010d0:	4b04      	ldr	r3, [pc, #16]	; (80010e4 <LL_RCC_GetSysClkSource+0x18>)
 80010d2:	685b      	ldr	r3, [r3, #4]
 80010d4:	f003 030c 	and.w	r3, r3, #12
}
 80010d8:	4618      	mov	r0, r3
 80010da:	46bd      	mov	sp, r7
 80010dc:	f85d 7b04 	ldr.w	r7, [sp], #4
 80010e0:	4770      	bx	lr
 80010e2:	bf00      	nop
 80010e4:	40021000 	.word	0x40021000

080010e8 <LL_RCC_SetAHBPrescaler>:
  *         @arg @ref LL_RCC_SYSCLK_DIV_256
  *         @arg @ref LL_RCC_SYSCLK_DIV_512
  * @retval None
  */
__STATIC_INLINE void LL_RCC_SetAHBPrescaler(uint32_t Prescaler)
{
 80010e8:	b480      	push	{r7}
 80010ea:	b083      	sub	sp, #12
 80010ec:	af00      	add	r7, sp, #0
 80010ee:	6078      	str	r0, [r7, #4]
  MODIFY_REG(RCC->CFGR, RCC_CFGR_HPRE, Prescaler);
 80010f0:	4b06      	ldr	r3, [pc, #24]	; (800110c <LL_RCC_SetAHBPrescaler+0x24>)
 80010f2:	685b      	ldr	r3, [r3, #4]
 80010f4:	f023 02f0 	bic.w	r2, r3, #240	; 0xf0
 80010f8:	4904      	ldr	r1, [pc, #16]	; (800110c <LL_RCC_SetAHBPrescaler+0x24>)
 80010fa:	687b      	ldr	r3, [r7, #4]
 80010fc:	4313      	orrs	r3, r2
 80010fe:	604b      	str	r3, [r1, #4]
}
 8001100:	bf00      	nop
 8001102:	370c      	adds	r7, #12
 8001104:	46bd      	mov	sp, r7
 8001106:	f85d 7b04 	ldr.w	r7, [sp], #4
 800110a:	4770      	bx	lr
 800110c:	40021000 	.word	0x40021000

08001110 <LL_RCC_SetAPB1Prescaler>:
  *         @arg @ref LL_RCC_APB1_DIV_8
  *         @arg @ref LL_RCC_APB1_DIV_16
  * @retval None
  */
__STATIC_INLINE void LL_RCC_SetAPB1Prescaler(uint32_t Prescaler)
{
 8001110:	b480      	push	{r7}
 8001112:	b083      	sub	sp, #12
 8001114:	af00      	add	r7, sp, #0
 8001116:	6078      	str	r0, [r7, #4]
  MODIFY_REG(RCC->CFGR, RCC_CFGR_PPRE1, Prescaler);
 8001118:	4b06      	ldr	r3, [pc, #24]	; (8001134 <LL_RCC_SetAPB1Prescaler+0x24>)
 800111a:	685b      	ldr	r3, [r3, #4]
 800111c:	f423 62e0 	bic.w	r2, r3, #1792	; 0x700
 8001120:	4904      	ldr	r1, [pc, #16]	; (8001134 <LL_RCC_SetAPB1Prescaler+0x24>)
 8001122:	687b      	ldr	r3, [r7, #4]
 8001124:	4313      	orrs	r3, r2
 8001126:	604b      	str	r3, [r1, #4]
}
 8001128:	bf00      	nop
 800112a:	370c      	adds	r7, #12
 800112c:	46bd      	mov	sp, r7
 800112e:	f85d 7b04 	ldr.w	r7, [sp], #4
 8001132:	4770      	bx	lr
 8001134:	40021000 	.word	0x40021000

08001138 <LL_RCC_SetAPB2Prescaler>:
  *         @arg @ref LL_RCC_APB2_DIV_8
  *         @arg @ref LL_RCC_APB2_DIV_16
  * @retval None
  */
__STATIC_INLINE void LL_RCC_SetAPB2Prescaler(uint32_t Prescaler)
{
 8001138:	b480      	push	{r7}
 800113a:	b083      	sub	sp, #12
 800113c:	af00      	add	r7, sp, #0
 800113e:	6078      	str	r0, [r7, #4]
  MODIFY_REG(RCC->CFGR, RCC_CFGR_PPRE2, Prescaler);
 8001140:	4b06      	ldr	r3, [pc, #24]	; (800115c <LL_RCC_SetAPB2Prescaler+0x24>)
 8001142:	685b      	ldr	r3, [r3, #4]
 8001144:	f423 5260 	bic.w	r2, r3, #14336	; 0x3800
 8001148:	4904      	ldr	r1, [pc, #16]	; (800115c <LL_RCC_SetAPB2Prescaler+0x24>)
 800114a:	687b      	ldr	r3, [r7, #4]
 800114c:	4313      	orrs	r3, r2
 800114e:	604b      	str	r3, [r1, #4]
}
 8001150:	bf00      	nop
 8001152:	370c      	adds	r7, #12
 8001154:	46bd      	mov	sp, r7
 8001156:	f85d 7b04 	ldr.w	r7, [sp], #4
 800115a:	4770      	bx	lr
 800115c:	40021000 	.word	0x40021000

08001160 <LL_RCC_SetI2CClockSource>:
  *
  *         (*) value not defined in all devices.
  * @retval None
  */
__STATIC_INLINE void LL_RCC_SetI2CClockSource(uint32_t I2CxSource)
{
 8001160:	b480      	push	{r7}
 8001162:	b083      	sub	sp, #12
 8001164:	af00      	add	r7, sp, #0
 8001166:	6078      	str	r0, [r7, #4]
  MODIFY_REG(RCC->CFGR3, ((I2CxSource  & 0xFF000000U) >> 24U), (I2CxSource & 0x00FFFFFFU));
 8001168:	4b08      	ldr	r3, [pc, #32]	; (800118c <LL_RCC_SetI2CClockSource+0x2c>)
 800116a:	6b1a      	ldr	r2, [r3, #48]	; 0x30
 800116c:	687b      	ldr	r3, [r7, #4]
 800116e:	0e1b      	lsrs	r3, r3, #24
 8001170:	43db      	mvns	r3, r3
 8001172:	401a      	ands	r2, r3
 8001174:	687b      	ldr	r3, [r7, #4]
 8001176:	f023 437f 	bic.w	r3, r3, #4278190080	; 0xff000000
 800117a:	4904      	ldr	r1, [pc, #16]	; (800118c <LL_RCC_SetI2CClockSource+0x2c>)
 800117c:	4313      	orrs	r3, r2
 800117e:	630b      	str	r3, [r1, #48]	; 0x30
}
 8001180:	bf00      	nop
 8001182:	370c      	adds	r7, #12
 8001184:	46bd      	mov	sp, r7
 8001186:	f85d 7b04 	ldr.w	r7, [sp], #4
 800118a:	4770      	bx	lr
 800118c:	40021000 	.word	0x40021000

08001190 <LL_APB1_GRP1_EnableClock>:
{
 8001190:	b480      	push	{r7}
 8001192:	b085      	sub	sp, #20
 8001194:	af00      	add	r7, sp, #0
 8001196:	6078      	str	r0, [r7, #4]
  SET_BIT(RCC->APB1ENR, Periphs);
 8001198:	4b08      	ldr	r3, [pc, #32]	; (80011bc <LL_APB1_GRP1_EnableClock+0x2c>)
 800119a:	69da      	ldr	r2, [r3, #28]
 800119c:	4907      	ldr	r1, [pc, #28]	; (80011bc <LL_APB1_GRP1_EnableClock+0x2c>)
 800119e:	687b      	ldr	r3, [r7, #4]
 80011a0:	4313      	orrs	r3, r2
 80011a2:	61cb      	str	r3, [r1, #28]
  tmpreg = READ_BIT(RCC->APB1ENR, Periphs);
 80011a4:	4b05      	ldr	r3, [pc, #20]	; (80011bc <LL_APB1_GRP1_EnableClock+0x2c>)
 80011a6:	69da      	ldr	r2, [r3, #28]
 80011a8:	687b      	ldr	r3, [r7, #4]
 80011aa:	4013      	ands	r3, r2
 80011ac:	60fb      	str	r3, [r7, #12]
  (void)tmpreg;
 80011ae:	68fb      	ldr	r3, [r7, #12]
}
 80011b0:	bf00      	nop
 80011b2:	3714      	adds	r7, #20
 80011b4:	46bd      	mov	sp, r7
 80011b6:	f85d 7b04 	ldr.w	r7, [sp], #4
 80011ba:	4770      	bx	lr
 80011bc:	40021000 	.word	0x40021000

080011c0 <LL_APB2_GRP1_EnableClock>:
  *
  *         (*) value not defined in all devices.
  * @retval None
*/
__STATIC_INLINE void LL_APB2_GRP1_EnableClock(uint32_t Periphs)
{
 80011c0:	b480      	push	{r7}
 80011c2:	b085      	sub	sp, #20
 80011c4:	af00      	add	r7, sp, #0
 80011c6:	6078      	str	r0, [r7, #4]
  __IO uint32_t tmpreg;
  SET_BIT(RCC->APB2ENR, Periphs);
 80011c8:	4b08      	ldr	r3, [pc, #32]	; (80011ec <LL_APB2_GRP1_EnableClock+0x2c>)
 80011ca:	699a      	ldr	r2, [r3, #24]
 80011cc:	4907      	ldr	r1, [pc, #28]	; (80011ec <LL_APB2_GRP1_EnableClock+0x2c>)
 80011ce:	687b      	ldr	r3, [r7, #4]
 80011d0:	4313      	orrs	r3, r2
 80011d2:	618b      	str	r3, [r1, #24]
  /* Delay after an RCC peripheral clock enabling */
  tmpreg = READ_BIT(RCC->APB2ENR, Periphs);
 80011d4:	4b05      	ldr	r3, [pc, #20]	; (80011ec <LL_APB2_GRP1_EnableClock+0x2c>)
 80011d6:	699a      	ldr	r2, [r3, #24]
 80011d8:	687b      	ldr	r3, [r7, #4]
 80011da:	4013      	ands	r3, r2
 80011dc:	60fb      	str	r3, [r7, #12]
  (void)tmpreg;
 80011de:	68fb      	ldr	r3, [r7, #12]
}
 80011e0:	bf00      	nop
 80011e2:	3714      	adds	r7, #20
 80011e4:	46bd      	mov	sp, r7
 80011e6:	f85d 7b04 	ldr.w	r7, [sp], #4
 80011ea:	4770      	bx	lr
 80011ec:	40021000 	.word	0x40021000

080011f0 <LL_FLASH_SetLatency>:
  *         @arg @ref LL_FLASH_LATENCY_1
  *         @arg @ref LL_FLASH_LATENCY_2
  * @retval None
  */
__STATIC_INLINE void LL_FLASH_SetLatency(uint32_t Latency)
{
 80011f0:	b480      	push	{r7}
 80011f2:	b083      	sub	sp, #12
 80011f4:	af00      	add	r7, sp, #0
 80011f6:	6078      	str	r0, [r7, #4]
  MODIFY_REG(FLASH->ACR, FLASH_ACR_LATENCY, Latency);
 80011f8:	4b06      	ldr	r3, [pc, #24]	; (8001214 <LL_FLASH_SetLatency+0x24>)
 80011fa:	681b      	ldr	r3, [r3, #0]
 80011fc:	f023 0207 	bic.w	r2, r3, #7
 8001200:	4904      	ldr	r1, [pc, #16]	; (8001214 <LL_FLASH_SetLatency+0x24>)
 8001202:	687b      	ldr	r3, [r7, #4]
 8001204:	4313      	orrs	r3, r2
 8001206:	600b      	str	r3, [r1, #0]
}
 8001208:	bf00      	nop
 800120a:	370c      	adds	r7, #12
 800120c:	46bd      	mov	sp, r7
 800120e:	f85d 7b04 	ldr.w	r7, [sp], #4
 8001212:	4770      	bx	lr
 8001214:	40022000 	.word	0x40022000

08001218 <LL_FLASH_GetLatency>:
  *         @arg @ref LL_FLASH_LATENCY_0
  *         @arg @ref LL_FLASH_LATENCY_1
  *         @arg @ref LL_FLASH_LATENCY_2
  */
__STATIC_INLINE uint32_t LL_FLASH_GetLatency(void)
{
 8001218:	b480      	push	{r7}
 800121a:	af00      	add	r7, sp, #0
  return (uint32_t)(READ_BIT(FLASH->ACR, FLASH_ACR_LATENCY));
 800121c:	4b04      	ldr	r3, [pc, #16]	; (8001230 <LL_FLASH_GetLatency+0x18>)
 800121e:	681b      	ldr	r3, [r3, #0]
 8001220:	f003 0307 	and.w	r3, r3, #7
}
 8001224:	4618      	mov	r0, r3
 8001226:	46bd      	mov	sp, r7
 8001228:	f85d 7b04 	ldr.w	r7, [sp], #4
 800122c:	4770      	bx	lr
 800122e:	bf00      	nop
 8001230:	40022000 	.word	0x40022000

08001234 <main>:
/**
  * @brief  The application entry point.
  * @retval int
  */
int main(void)
{
 8001234:	e92d 43b0 	stmdb	sp!, {r4, r5, r7, r8, r9, lr}
 8001238:	b082      	sub	sp, #8
 800123a:	af00      	add	r7, sp, #0

  /* MCU Configuration--------------------------------------------------------*/

  /* Reset of all peripherals, Initializes the Flash interface and the Systick. */

  LL_APB2_GRP1_EnableClock(LL_APB2_GRP1_PERIPH_SYSCFG);
 800123c:	2001      	movs	r0, #1
 800123e:	f7ff ffbf 	bl	80011c0 <LL_APB2_GRP1_EnableClock>
  LL_APB1_GRP1_EnableClock(LL_APB1_GRP1_PERIPH_PWR);
 8001242:	f04f 5080 	mov.w	r0, #268435456	; 0x10000000
 8001246:	f7ff ffa3 	bl	8001190 <LL_APB1_GRP1_EnableClock>

  NVIC_SetPriorityGrouping(NVIC_PRIORITYGROUP_4);
 800124a:	2003      	movs	r0, #3
 800124c:	f7ff fe62 	bl	8000f14 <__NVIC_SetPriorityGrouping>

  /* System interrupt init*/
  /* SysTick_IRQn interrupt configuration */
  NVIC_SetPriority(SysTick_IRQn, NVIC_EncodePriority(NVIC_GetPriorityGrouping(),1, 0));
 8001250:	f7ff fe84 	bl	8000f5c <__NVIC_GetPriorityGrouping>
 8001254:	4603      	mov	r3, r0
 8001256:	2200      	movs	r2, #0
 8001258:	2101      	movs	r1, #1
 800125a:	4618      	mov	r0, r3
 800125c:	f7ff feb6 	bl	8000fcc <NVIC_EncodePriority>
 8001260:	4603      	mov	r3, r0
 8001262:	4619      	mov	r1, r3
 8001264:	f04f 30ff 	mov.w	r0, #4294967295
 8001268:	f7ff fe86 	bl	8000f78 <__NVIC_SetPriority>
  EXTI->RTSR &= ~(EXTI_IMR_MR4);
  EXTI->FTSR |= EXTI_IMR_MR4;*/
  /* USER CODE END Init */

  /* Configure the system clock */
  SystemClock_Config();
 800126c:	f000 f8a0 	bl	80013b0 <SystemClock_Config>

  /* USER CODE BEGIN SysInit */
  Systick_Init();
 8001270:	f000 faca 	bl	8001808 <Systick_Init>
  /* USER CODE END SysInit */

  /* Initialize all configured peripherals */
  MX_GPIO_Init();
 8001274:	f7ff fa9c 	bl	80007b0 <MX_GPIO_Init>
  MX_I2C1_Init();
 8001278:	f7ff fce0 	bl	8000c3c <MX_I2C1_Init>
  MX_TIM3_Init();
 800127c:	f000 fad6 	bl	800182c <MX_TIM3_Init>
  /* USER CODE BEGIN 2 */
  error = 0;
 8001280:	4b41      	ldr	r3, [pc, #260]	; (8001388 <main+0x154>)
 8001282:	2200      	movs	r2, #0
 8001284:	701a      	strb	r2, [r3, #0]
  if(!lps25hb_init()) error = 1;
 8001286:	f7ff fdf3 	bl	8000e70 <lps25hb_init>
 800128a:	4603      	mov	r3, r0
 800128c:	2b00      	cmp	r3, #0
 800128e:	d102      	bne.n	8001296 <main+0x62>
 8001290:	4b3d      	ldr	r3, [pc, #244]	; (8001388 <main+0x154>)
 8001292:	2201      	movs	r2, #1
 8001294:	701a      	strb	r2, [r3, #0]


  setSegments();
 8001296:	f7fe ffe9 	bl	800026c <setSegments>
  setDigits();
 800129a:	f7ff f835 	bl	8000308 <setDigits>
  LL_mDelay(2000);
 800129e:	f44f 60fa 	mov.w	r0, #2000	; 0x7d0
 80012a2:	f001 fbe9 	bl	8002a78 <LL_mDelay>
  resetDigits();
 80012a6:	f7ff f80f 	bl	80002c8 <resetDigits>
  resetSegments();
 80012aa:	f7fe ffb1 	bl	8000210 <resetSegments>

  mode = 0;
 80012ae:	4b37      	ldr	r3, [pc, #220]	; (800138c <main+0x158>)
 80012b0:	2200      	movs	r2, #0
 80012b2:	701a      	strb	r2, [r3, #0]
  int8_t test;
  strcpy(display_text,"0123456789\0");
 80012b4:	4a36      	ldr	r2, [pc, #216]	; (8001390 <main+0x15c>)
 80012b6:	4b37      	ldr	r3, [pc, #220]	; (8001394 <main+0x160>)
 80012b8:	cb03      	ldmia	r3!, {r0, r1}
 80012ba:	6010      	str	r0, [r2, #0]
 80012bc:	6051      	str	r1, [r2, #4]
 80012be:	8819      	ldrh	r1, [r3, #0]
 80012c0:	789b      	ldrb	r3, [r3, #2]
 80012c2:	8111      	strh	r1, [r2, #8]
 80012c4:	7293      	strb	r3, [r2, #10]
  /* Infinite loop */
  /* USER CODE BEGIN WHILE */

  while (1)
  {
	  if(error) {
 80012c6:	4b30      	ldr	r3, [pc, #192]	; (8001388 <main+0x154>)
 80012c8:	781b      	ldrb	r3, [r3, #0]
 80012ca:	2b00      	cmp	r3, #0
 80012cc:	d00a      	beq.n	80012e4 <main+0xb0>
		  strcpy(display_text,"I2C_address_error\0");
 80012ce:	4a30      	ldr	r2, [pc, #192]	; (8001390 <main+0x15c>)
 80012d0:	4b31      	ldr	r3, [pc, #196]	; (8001398 <main+0x164>)
 80012d2:	4615      	mov	r5, r2
 80012d4:	461c      	mov	r4, r3
 80012d6:	cc0f      	ldmia	r4!, {r0, r1, r2, r3}
 80012d8:	6028      	str	r0, [r5, #0]
 80012da:	6069      	str	r1, [r5, #4]
 80012dc:	60aa      	str	r2, [r5, #8]
 80012de:	60eb      	str	r3, [r5, #12]
 80012e0:	8823      	ldrh	r3, [r4, #0]
 80012e2:	822b      	strh	r3, [r5, #16]
	  }
	  test = BUTTON_READ_VALUE;
 80012e4:	4b2d      	ldr	r3, [pc, #180]	; (800139c <main+0x168>)
 80012e6:	691b      	ldr	r3, [r3, #16]
 80012e8:	b25b      	sxtb	r3, r3
 80012ea:	f003 0308 	and.w	r3, r3, #8
 80012ee:	71fb      	strb	r3, [r7, #7]
	  if(disp_time > (saved_time + 500))
 80012f0:	4b2b      	ldr	r3, [pc, #172]	; (80013a0 <main+0x16c>)
 80012f2:	e9d3 2300 	ldrd	r2, r3, [r3]
 80012f6:	f512 78fa 	adds.w	r8, r2, #500	; 0x1f4
 80012fa:	f143 0900 	adc.w	r9, r3, #0
 80012fe:	4b29      	ldr	r3, [pc, #164]	; (80013a4 <main+0x170>)
 8001300:	e9d3 2300 	ldrd	r2, r3, [r3]
 8001304:	4599      	cmp	r9, r3
 8001306:	bf08      	it	eq
 8001308:	4590      	cmpeq	r8, r2
 800130a:	d2dc      	bcs.n	80012c6 <main+0x92>
	  	  {

	  		  display_sign(display_text[act_index],display_text[act_index+1],display_text[act_index+2],display_text[act_index+3]);
 800130c:	4b26      	ldr	r3, [pc, #152]	; (80013a8 <main+0x174>)
 800130e:	681b      	ldr	r3, [r3, #0]
 8001310:	4a1f      	ldr	r2, [pc, #124]	; (8001390 <main+0x15c>)
 8001312:	5cd0      	ldrb	r0, [r2, r3]
 8001314:	4b24      	ldr	r3, [pc, #144]	; (80013a8 <main+0x174>)
 8001316:	681b      	ldr	r3, [r3, #0]
 8001318:	3301      	adds	r3, #1
 800131a:	4a1d      	ldr	r2, [pc, #116]	; (8001390 <main+0x15c>)
 800131c:	5cd1      	ldrb	r1, [r2, r3]
 800131e:	4b22      	ldr	r3, [pc, #136]	; (80013a8 <main+0x174>)
 8001320:	681b      	ldr	r3, [r3, #0]
 8001322:	3302      	adds	r3, #2
 8001324:	4a1a      	ldr	r2, [pc, #104]	; (8001390 <main+0x15c>)
 8001326:	5cd2      	ldrb	r2, [r2, r3]
 8001328:	4b1f      	ldr	r3, [pc, #124]	; (80013a8 <main+0x174>)
 800132a:	681b      	ldr	r3, [r3, #0]
 800132c:	3303      	adds	r3, #3
 800132e:	4c18      	ldr	r4, [pc, #96]	; (8001390 <main+0x15c>)
 8001330:	5ce3      	ldrb	r3, [r4, r3]
 8001332:	f7ff f8a3 	bl	800047c <display_sign>
	  	  	  saved_time = disp_time;
 8001336:	4b1b      	ldr	r3, [pc, #108]	; (80013a4 <main+0x170>)
 8001338:	e9d3 2300 	ldrd	r2, r3, [r3]
 800133c:	4918      	ldr	r1, [pc, #96]	; (80013a0 <main+0x16c>)
 800133e:	e9c1 2300 	strd	r2, r3, [r1]

	  	  	  if(right){ //urcovanie smeru
 8001342:	4b1a      	ldr	r3, [pc, #104]	; (80013ac <main+0x178>)
 8001344:	681b      	ldr	r3, [r3, #0]
 8001346:	2b00      	cmp	r3, #0
 8001348:	d005      	beq.n	8001356 <main+0x122>
	  	  		  act_index++;
 800134a:	4b17      	ldr	r3, [pc, #92]	; (80013a8 <main+0x174>)
 800134c:	681b      	ldr	r3, [r3, #0]
 800134e:	3301      	adds	r3, #1
 8001350:	4a15      	ldr	r2, [pc, #84]	; (80013a8 <main+0x174>)
 8001352:	6013      	str	r3, [r2, #0]
 8001354:	e004      	b.n	8001360 <main+0x12c>
	  	  	  } else {
	  	  		  act_index--;
 8001356:	4b14      	ldr	r3, [pc, #80]	; (80013a8 <main+0x174>)
 8001358:	681b      	ldr	r3, [r3, #0]
 800135a:	3b01      	subs	r3, #1
 800135c:	4a12      	ldr	r2, [pc, #72]	; (80013a8 <main+0x174>)
 800135e:	6013      	str	r3, [r2, #0]
	  	  	  }
	  	  	  if(act_index == strlen(display_text)-4) { //17 velkost zobrazovaneho textu, ak dojde nakoniec zmeni smer
 8001360:	480b      	ldr	r0, [pc, #44]	; (8001390 <main+0x15c>)
 8001362:	f7fe ff31 	bl	80001c8 <strlen>
 8001366:	4603      	mov	r3, r0
 8001368:	3b04      	subs	r3, #4
 800136a:	4a0f      	ldr	r2, [pc, #60]	; (80013a8 <main+0x174>)
 800136c:	6812      	ldr	r2, [r2, #0]
 800136e:	4293      	cmp	r3, r2
 8001370:	d102      	bne.n	8001378 <main+0x144>
	  	  		  right = 0;
 8001372:	4b0e      	ldr	r3, [pc, #56]	; (80013ac <main+0x178>)
 8001374:	2200      	movs	r2, #0
 8001376:	601a      	str	r2, [r3, #0]
	  	  	  }
	  	  	  if (act_index == 0){
 8001378:	4b0b      	ldr	r3, [pc, #44]	; (80013a8 <main+0x174>)
 800137a:	681b      	ldr	r3, [r3, #0]
 800137c:	2b00      	cmp	r3, #0
 800137e:	d1a2      	bne.n	80012c6 <main+0x92>
	  	  		  right = 1;
 8001380:	4b0a      	ldr	r3, [pc, #40]	; (80013ac <main+0x178>)
 8001382:	2201      	movs	r2, #1
 8001384:	601a      	str	r2, [r3, #0]
	  if(error) {
 8001386:	e79e      	b.n	80012c6 <main+0x92>
 8001388:	20000049 	.word	0x20000049
 800138c:	20000048 	.word	0x20000048
 8001390:	20000058 	.word	0x20000058
 8001394:	08002b54 	.word	0x08002b54
 8001398:	08002b60 	.word	0x08002b60
 800139c:	48000400 	.word	0x48000400
 80013a0:	20000050 	.word	0x20000050
 80013a4:	20000028 	.word	0x20000028
 80013a8:	2000003c 	.word	0x2000003c
 80013ac:	20000000 	.word	0x20000000

080013b0 <SystemClock_Config>:
/**
  * @brief System Clock Configuration
  * @retval None
  */
void SystemClock_Config(void)
{
 80013b0:	b580      	push	{r7, lr}
 80013b2:	af00      	add	r7, sp, #0
  LL_FLASH_SetLatency(LL_FLASH_LATENCY_0);
 80013b4:	2000      	movs	r0, #0
 80013b6:	f7ff ff1b 	bl	80011f0 <LL_FLASH_SetLatency>
  while(LL_FLASH_GetLatency()!= LL_FLASH_LATENCY_0)
 80013ba:	bf00      	nop
 80013bc:	f7ff ff2c 	bl	8001218 <LL_FLASH_GetLatency>
 80013c0:	4603      	mov	r3, r0
 80013c2:	2b00      	cmp	r3, #0
 80013c4:	d1fa      	bne.n	80013bc <SystemClock_Config+0xc>
  {
  }
  LL_RCC_HSI_Enable();
 80013c6:	f7ff fe35 	bl	8001034 <LL_RCC_HSI_Enable>

   /* Wait till HSI is ready */
  while(LL_RCC_HSI_IsReady() != 1)
 80013ca:	bf00      	nop
 80013cc:	f7ff fe42 	bl	8001054 <LL_RCC_HSI_IsReady>
 80013d0:	4603      	mov	r3, r0
 80013d2:	2b01      	cmp	r3, #1
 80013d4:	d1fa      	bne.n	80013cc <SystemClock_Config+0x1c>
  {

  }
  LL_RCC_HSI_SetCalibTrimming(16);
 80013d6:	2010      	movs	r0, #16
 80013d8:	f7ff fe4e 	bl	8001078 <LL_RCC_HSI_SetCalibTrimming>
  LL_RCC_SetAHBPrescaler(LL_RCC_SYSCLK_DIV_1);
 80013dc:	2000      	movs	r0, #0
 80013de:	f7ff fe83 	bl	80010e8 <LL_RCC_SetAHBPrescaler>
  LL_RCC_SetAPB1Prescaler(LL_RCC_APB1_DIV_1);
 80013e2:	2000      	movs	r0, #0
 80013e4:	f7ff fe94 	bl	8001110 <LL_RCC_SetAPB1Prescaler>
  LL_RCC_SetAPB2Prescaler(LL_RCC_APB2_DIV_1);
 80013e8:	2000      	movs	r0, #0
 80013ea:	f7ff fea5 	bl	8001138 <LL_RCC_SetAPB2Prescaler>
  LL_RCC_SetSysClkSource(LL_RCC_SYS_CLKSOURCE_HSI);
 80013ee:	2000      	movs	r0, #0
 80013f0:	f7ff fe58 	bl	80010a4 <LL_RCC_SetSysClkSource>

   /* Wait till System clock is ready */
  while(LL_RCC_GetSysClkSource() != LL_RCC_SYS_CLKSOURCE_STATUS_HSI)
 80013f4:	bf00      	nop
 80013f6:	f7ff fe69 	bl	80010cc <LL_RCC_GetSysClkSource>
 80013fa:	4603      	mov	r3, r0
 80013fc:	2b00      	cmp	r3, #0
 80013fe:	d1fa      	bne.n	80013f6 <SystemClock_Config+0x46>
  {

  }
  LL_Init1msTick(8000000);
 8001400:	4805      	ldr	r0, [pc, #20]	; (8001418 <SystemClock_Config+0x68>)
 8001402:	f001 fb2b 	bl	8002a5c <LL_Init1msTick>
  LL_SetSystemCoreClock(8000000);
 8001406:	4804      	ldr	r0, [pc, #16]	; (8001418 <SystemClock_Config+0x68>)
 8001408:	f001 fb5c 	bl	8002ac4 <LL_SetSystemCoreClock>
  LL_RCC_SetI2CClockSource(LL_RCC_I2C1_CLKSOURCE_HSI);
 800140c:	f04f 5080 	mov.w	r0, #268435456	; 0x10000000
 8001410:	f7ff fea6 	bl	8001160 <LL_RCC_SetI2CClockSource>
}
 8001414:	bf00      	nop
 8001416:	bd80      	pop	{r7, pc}
 8001418:	007a1200 	.word	0x007a1200

0800141c <LL_TIM_ClearFlag_UPDATE>:
  * @rmtoll SR           UIF           LL_TIM_ClearFlag_UPDATE
  * @param  TIMx Timer instance
  * @retval None
  */
__STATIC_INLINE void LL_TIM_ClearFlag_UPDATE(TIM_TypeDef *TIMx)
{
 800141c:	b480      	push	{r7}
 800141e:	b083      	sub	sp, #12
 8001420:	af00      	add	r7, sp, #0
 8001422:	6078      	str	r0, [r7, #4]
  WRITE_REG(TIMx->SR, ~(TIM_SR_UIF));
 8001424:	687b      	ldr	r3, [r7, #4]
 8001426:	f06f 0201 	mvn.w	r2, #1
 800142a:	611a      	str	r2, [r3, #16]
}
 800142c:	bf00      	nop
 800142e:	370c      	adds	r7, #12
 8001430:	46bd      	mov	sp, r7
 8001432:	f85d 7b04 	ldr.w	r7, [sp], #4
 8001436:	4770      	bx	lr

08001438 <LL_TIM_IsActiveFlag_UPDATE>:
  * @rmtoll SR           UIF           LL_TIM_IsActiveFlag_UPDATE
  * @param  TIMx Timer instance
  * @retval State of bit (1 or 0).
  */
__STATIC_INLINE uint32_t LL_TIM_IsActiveFlag_UPDATE(TIM_TypeDef *TIMx)
{
 8001438:	b480      	push	{r7}
 800143a:	b083      	sub	sp, #12
 800143c:	af00      	add	r7, sp, #0
 800143e:	6078      	str	r0, [r7, #4]
  return ((READ_BIT(TIMx->SR, TIM_SR_UIF) == (TIM_SR_UIF)) ? 1UL : 0UL);
 8001440:	687b      	ldr	r3, [r7, #4]
 8001442:	691b      	ldr	r3, [r3, #16]
 8001444:	f003 0301 	and.w	r3, r3, #1
 8001448:	2b01      	cmp	r3, #1
 800144a:	d101      	bne.n	8001450 <LL_TIM_IsActiveFlag_UPDATE+0x18>
 800144c:	2301      	movs	r3, #1
 800144e:	e000      	b.n	8001452 <LL_TIM_IsActiveFlag_UPDATE+0x1a>
 8001450:	2300      	movs	r3, #0
}
 8001452:	4618      	mov	r0, r3
 8001454:	370c      	adds	r7, #12
 8001456:	46bd      	mov	sp, r7
 8001458:	f85d 7b04 	ldr.w	r7, [sp], #4
 800145c:	4770      	bx	lr

0800145e <NMI_Handler>:
/******************************************************************************/
/**
  * @brief This function handles Non maskable interrupt.
  */
void NMI_Handler(void)
{
 800145e:	b480      	push	{r7}
 8001460:	af00      	add	r7, sp, #0
  /* USER CODE BEGIN NonMaskableInt_IRQn 0 */

  /* USER CODE END NonMaskableInt_IRQn 0 */
  /* USER CODE BEGIN NonMaskableInt_IRQn 1 */
  while (1)
 8001462:	e7fe      	b.n	8001462 <NMI_Handler+0x4>

08001464 <HardFault_Handler>:

/**
  * @brief This function handles Hard fault interrupt.
  */
void HardFault_Handler(void)
{
 8001464:	b480      	push	{r7}
 8001466:	af00      	add	r7, sp, #0
  /* USER CODE BEGIN HardFault_IRQn 0 */

  /* USER CODE END HardFault_IRQn 0 */
  while (1)
 8001468:	e7fe      	b.n	8001468 <HardFault_Handler+0x4>

0800146a <MemManage_Handler>:

/**
  * @brief This function handles Memory management fault.
  */
void MemManage_Handler(void)
{
 800146a:	b480      	push	{r7}
 800146c:	af00      	add	r7, sp, #0
  /* USER CODE BEGIN MemoryManagement_IRQn 0 */

  /* USER CODE END MemoryManagement_IRQn 0 */
  while (1)
 800146e:	e7fe      	b.n	800146e <MemManage_Handler+0x4>

08001470 <BusFault_Handler>:

/**
  * @brief This function handles Pre-fetch fault, memory access fault.
  */
void BusFault_Handler(void)
{
 8001470:	b480      	push	{r7}
 8001472:	af00      	add	r7, sp, #0
  /* USER CODE BEGIN BusFault_IRQn 0 */

  /* USER CODE END BusFault_IRQn 0 */
  while (1)
 8001474:	e7fe      	b.n	8001474 <BusFault_Handler+0x4>

08001476 <UsageFault_Handler>:

/**
  * @brief This function handles Undefined instruction or illegal state.
  */
void UsageFault_Handler(void)
{
 8001476:	b480      	push	{r7}
 8001478:	af00      	add	r7, sp, #0
  /* USER CODE BEGIN UsageFault_IRQn 0 */

  /* USER CODE END UsageFault_IRQn 0 */
  while (1)
 800147a:	e7fe      	b.n	800147a <UsageFault_Handler+0x4>

0800147c <SVC_Handler>:

/**
  * @brief This function handles System service call via SWI instruction.
  */
void SVC_Handler(void)
{
 800147c:	b480      	push	{r7}
 800147e:	af00      	add	r7, sp, #0

  /* USER CODE END SVCall_IRQn 0 */
  /* USER CODE BEGIN SVCall_IRQn 1 */

  /* USER CODE END SVCall_IRQn 1 */
}
 8001480:	bf00      	nop
 8001482:	46bd      	mov	sp, r7
 8001484:	f85d 7b04 	ldr.w	r7, [sp], #4
 8001488:	4770      	bx	lr

0800148a <DebugMon_Handler>:

/**
  * @brief This function handles Debug monitor.
  */
void DebugMon_Handler(void)
{
 800148a:	b480      	push	{r7}
 800148c:	af00      	add	r7, sp, #0

  /* USER CODE END DebugMonitor_IRQn 0 */
  /* USER CODE BEGIN DebugMonitor_IRQn 1 */

  /* USER CODE END DebugMonitor_IRQn 1 */
}
 800148e:	bf00      	nop
 8001490:	46bd      	mov	sp, r7
 8001492:	f85d 7b04 	ldr.w	r7, [sp], #4
 8001496:	4770      	bx	lr

08001498 <PendSV_Handler>:

/**
  * @brief This function handles Pendable request for system service.
  */
void PendSV_Handler(void)
{
 8001498:	b480      	push	{r7}
 800149a:	af00      	add	r7, sp, #0

  /* USER CODE END PendSV_IRQn 0 */
  /* USER CODE BEGIN PendSV_IRQn 1 */

  /* USER CODE END PendSV_IRQn 1 */
}
 800149c:	bf00      	nop
 800149e:	46bd      	mov	sp, r7
 80014a0:	f85d 7b04 	ldr.w	r7, [sp], #4
 80014a4:	4770      	bx	lr
	...

080014a8 <SysTick_Handler>:

/**
  * @brief This function handles System tick timer.
  */
void SysTick_Handler(void)
{
 80014a8:	b480      	push	{r7}
 80014aa:	af00      	add	r7, sp, #0
  /* USER CODE BEGIN SysTick_IRQn 0 */

  /* USER CODE END SysTick_IRQn 0 */
  /* USER CODE BEGIN SysTick_IRQn 1 */
	disp_time++;
 80014ac:	4b06      	ldr	r3, [pc, #24]	; (80014c8 <SysTick_Handler+0x20>)
 80014ae:	e9d3 2300 	ldrd	r2, r3, [r3]
 80014b2:	1c50      	adds	r0, r2, #1
 80014b4:	f143 0100 	adc.w	r1, r3, #0
 80014b8:	4b03      	ldr	r3, [pc, #12]	; (80014c8 <SysTick_Handler+0x20>)
 80014ba:	e9c3 0100 	strd	r0, r1, [r3]
  /* USER CODE END SysTick_IRQn 1 */
}
 80014be:	bf00      	nop
 80014c0:	46bd      	mov	sp, r7
 80014c2:	f85d 7b04 	ldr.w	r7, [sp], #4
 80014c6:	4770      	bx	lr
 80014c8:	20000028 	.word	0x20000028

080014cc <EXTI3_IRQHandler>:

/**
  * @brief This function handles EXTI line 3 interrupt.
  */
void EXTI3_IRQHandler(void)
{
 80014cc:	b480      	push	{r7}
 80014ce:	af00      	add	r7, sp, #0

  /* USER CODE END EXTI3_IRQn 0 */
  /* USER CODE BEGIN EXTI3_IRQn 1 */

  /* USER CODE END EXTI3_IRQn 1 */
}
 80014d0:	bf00      	nop
 80014d2:	46bd      	mov	sp, r7
 80014d4:	f85d 7b04 	ldr.w	r7, [sp], #4
 80014d8:	4770      	bx	lr
	...

080014dc <TIM3_IRQHandler>:

/**
  * @brief This function handles TIM3 global interrupt.
  */
void TIM3_IRQHandler(void)
{
 80014dc:	b580      	push	{r7, lr}
 80014de:	af00      	add	r7, sp, #0
  /* USER CODE BEGIN TIM3_IRQn 0 */
	if(LL_TIM_IsActiveFlag_UPDATE(TIM3))
 80014e0:	4806      	ldr	r0, [pc, #24]	; (80014fc <TIM3_IRQHandler+0x20>)
 80014e2:	f7ff ffa9 	bl	8001438 <LL_TIM_IsActiveFlag_UPDATE>
 80014e6:	4603      	mov	r3, r0
 80014e8:	2b00      	cmp	r3, #0
 80014ea:	d001      	beq.n	80014f0 <TIM3_IRQHandler+0x14>
		{
			updateDisplay();
 80014ec:	f7fe ffe8 	bl	80004c0 <updateDisplay>
		}

	LL_TIM_ClearFlag_UPDATE(TIM3);
 80014f0:	4802      	ldr	r0, [pc, #8]	; (80014fc <TIM3_IRQHandler+0x20>)
 80014f2:	f7ff ff93 	bl	800141c <LL_TIM_ClearFlag_UPDATE>
  /* USER CODE END TIM3_IRQn 0 */
  /* USER CODE BEGIN TIM3_IRQn 1 */

  /* USER CODE END TIM3_IRQn 1 */
}
 80014f6:	bf00      	nop
 80014f8:	bd80      	pop	{r7, pc}
 80014fa:	bf00      	nop
 80014fc:	40000400 	.word	0x40000400

08001500 <I2C1_EV_IRQHandler>:

/**
  * @brief This function handles I2C1 event global interrupt / I2C1 wake-up interrupt through EXT line 23.
  */
void I2C1_EV_IRQHandler(void)
{
 8001500:	b580      	push	{r7, lr}
 8001502:	af00      	add	r7, sp, #0
  /* USER CODE BEGIN I2C1_EV_IRQn 0 */
	I2C1_EV_IRQHandler_fun();
 8001504:	f7ff fc84 	bl	8000e10 <I2C1_EV_IRQHandler_fun>
  /* USER CODE END I2C1_EV_IRQn 0 */
  /* USER CODE BEGIN I2C1_EV_IRQn 1 */

  /* USER CODE END I2C1_EV_IRQn 1 */
}
 8001508:	bf00      	nop
 800150a:	bd80      	pop	{r7, pc}

0800150c <SystemInit>:
  * @brief  Setup the microcontroller system
  * @param  None
  * @retval None
  */
void SystemInit(void)
{
 800150c:	b480      	push	{r7}
 800150e:	af00      	add	r7, sp, #0
/* FPU settings --------------------------------------------------------------*/
#if (__FPU_PRESENT == 1) && (__FPU_USED == 1)
  SCB->CPACR |= ((3UL << 10*2)|(3UL << 11*2));  /* set CP10 and CP11 Full Access */
 8001510:	4b06      	ldr	r3, [pc, #24]	; (800152c <SystemInit+0x20>)
 8001512:	f8d3 3088 	ldr.w	r3, [r3, #136]	; 0x88
 8001516:	4a05      	ldr	r2, [pc, #20]	; (800152c <SystemInit+0x20>)
 8001518:	f443 0370 	orr.w	r3, r3, #15728640	; 0xf00000
 800151c:	f8c2 3088 	str.w	r3, [r2, #136]	; 0x88

  /* Configure the Vector Table location -------------------------------------*/
#if defined(USER_VECT_TAB_ADDRESS)
  SCB->VTOR = VECT_TAB_BASE_ADDRESS | VECT_TAB_OFFSET; /* Vector Table Relocation in Internal SRAM */
#endif /* USER_VECT_TAB_ADDRESS */
}
 8001520:	bf00      	nop
 8001522:	46bd      	mov	sp, r7
 8001524:	f85d 7b04 	ldr.w	r7, [sp], #4
 8001528:	4770      	bx	lr
 800152a:	bf00      	nop
 800152c:	e000ed00 	.word	0xe000ed00

08001530 <__NVIC_GetPriorityGrouping>:
{
 8001530:	b480      	push	{r7}
 8001532:	af00      	add	r7, sp, #0
  return ((uint32_t)((SCB->AIRCR & SCB_AIRCR_PRIGROUP_Msk) >> SCB_AIRCR_PRIGROUP_Pos));
 8001534:	4b04      	ldr	r3, [pc, #16]	; (8001548 <__NVIC_GetPriorityGrouping+0x18>)
 8001536:	68db      	ldr	r3, [r3, #12]
 8001538:	0a1b      	lsrs	r3, r3, #8
 800153a:	f003 0307 	and.w	r3, r3, #7
}
 800153e:	4618      	mov	r0, r3
 8001540:	46bd      	mov	sp, r7
 8001542:	f85d 7b04 	ldr.w	r7, [sp], #4
 8001546:	4770      	bx	lr
 8001548:	e000ed00 	.word	0xe000ed00

0800154c <__NVIC_EnableIRQ>:
{
 800154c:	b480      	push	{r7}
 800154e:	b083      	sub	sp, #12
 8001550:	af00      	add	r7, sp, #0
 8001552:	4603      	mov	r3, r0
 8001554:	71fb      	strb	r3, [r7, #7]
  if ((int32_t)(IRQn) >= 0)
 8001556:	f997 3007 	ldrsb.w	r3, [r7, #7]
 800155a:	2b00      	cmp	r3, #0
 800155c:	db0b      	blt.n	8001576 <__NVIC_EnableIRQ+0x2a>
    NVIC->ISER[(((uint32_t)IRQn) >> 5UL)] = (uint32_t)(1UL << (((uint32_t)IRQn) & 0x1FUL));
 800155e:	79fb      	ldrb	r3, [r7, #7]
 8001560:	f003 021f 	and.w	r2, r3, #31
 8001564:	4907      	ldr	r1, [pc, #28]	; (8001584 <__NVIC_EnableIRQ+0x38>)
 8001566:	f997 3007 	ldrsb.w	r3, [r7, #7]
 800156a:	095b      	lsrs	r3, r3, #5
 800156c:	2001      	movs	r0, #1
 800156e:	fa00 f202 	lsl.w	r2, r0, r2
 8001572:	f841 2023 	str.w	r2, [r1, r3, lsl #2]
}
 8001576:	bf00      	nop
 8001578:	370c      	adds	r7, #12
 800157a:	46bd      	mov	sp, r7
 800157c:	f85d 7b04 	ldr.w	r7, [sp], #4
 8001580:	4770      	bx	lr
 8001582:	bf00      	nop
 8001584:	e000e100 	.word	0xe000e100

08001588 <__NVIC_SetPriority>:
{
 8001588:	b480      	push	{r7}
 800158a:	b083      	sub	sp, #12
 800158c:	af00      	add	r7, sp, #0
 800158e:	4603      	mov	r3, r0
 8001590:	6039      	str	r1, [r7, #0]
 8001592:	71fb      	strb	r3, [r7, #7]
  if ((int32_t)(IRQn) >= 0)
 8001594:	f997 3007 	ldrsb.w	r3, [r7, #7]
 8001598:	2b00      	cmp	r3, #0
 800159a:	db0a      	blt.n	80015b2 <__NVIC_SetPriority+0x2a>
    NVIC->IP[((uint32_t)IRQn)]               = (uint8_t)((priority << (8U - __NVIC_PRIO_BITS)) & (uint32_t)0xFFUL);
 800159c:	683b      	ldr	r3, [r7, #0]
 800159e:	b2da      	uxtb	r2, r3
 80015a0:	490c      	ldr	r1, [pc, #48]	; (80015d4 <__NVIC_SetPriority+0x4c>)
 80015a2:	f997 3007 	ldrsb.w	r3, [r7, #7]
 80015a6:	0112      	lsls	r2, r2, #4
 80015a8:	b2d2      	uxtb	r2, r2
 80015aa:	440b      	add	r3, r1
 80015ac:	f883 2300 	strb.w	r2, [r3, #768]	; 0x300
}
 80015b0:	e00a      	b.n	80015c8 <__NVIC_SetPriority+0x40>
    SCB->SHP[(((uint32_t)IRQn) & 0xFUL)-4UL] = (uint8_t)((priority << (8U - __NVIC_PRIO_BITS)) & (uint32_t)0xFFUL);
 80015b2:	683b      	ldr	r3, [r7, #0]
 80015b4:	b2da      	uxtb	r2, r3
 80015b6:	4908      	ldr	r1, [pc, #32]	; (80015d8 <__NVIC_SetPriority+0x50>)
 80015b8:	79fb      	ldrb	r3, [r7, #7]
 80015ba:	f003 030f 	and.w	r3, r3, #15
 80015be:	3b04      	subs	r3, #4
 80015c0:	0112      	lsls	r2, r2, #4
 80015c2:	b2d2      	uxtb	r2, r2
 80015c4:	440b      	add	r3, r1
 80015c6:	761a      	strb	r2, [r3, #24]
}
 80015c8:	bf00      	nop
 80015ca:	370c      	adds	r7, #12
 80015cc:	46bd      	mov	sp, r7
 80015ce:	f85d 7b04 	ldr.w	r7, [sp], #4
 80015d2:	4770      	bx	lr
 80015d4:	e000e100 	.word	0xe000e100
 80015d8:	e000ed00 	.word	0xe000ed00

080015dc <NVIC_EncodePriority>:
{
 80015dc:	b480      	push	{r7}
 80015de:	b089      	sub	sp, #36	; 0x24
 80015e0:	af00      	add	r7, sp, #0
 80015e2:	60f8      	str	r0, [r7, #12]
 80015e4:	60b9      	str	r1, [r7, #8]
 80015e6:	607a      	str	r2, [r7, #4]
  uint32_t PriorityGroupTmp = (PriorityGroup & (uint32_t)0x07UL);   /* only values 0..7 are used          */
 80015e8:	68fb      	ldr	r3, [r7, #12]
 80015ea:	f003 0307 	and.w	r3, r3, #7
 80015ee:	61fb      	str	r3, [r7, #28]
  PreemptPriorityBits = ((7UL - PriorityGroupTmp) > (uint32_t)(__NVIC_PRIO_BITS)) ? (uint32_t)(__NVIC_PRIO_BITS) : (uint32_t)(7UL - PriorityGroupTmp);
 80015f0:	69fb      	ldr	r3, [r7, #28]
 80015f2:	f1c3 0307 	rsb	r3, r3, #7
 80015f6:	2b04      	cmp	r3, #4
 80015f8:	bf28      	it	cs
 80015fa:	2304      	movcs	r3, #4
 80015fc:	61bb      	str	r3, [r7, #24]
  SubPriorityBits     = ((PriorityGroupTmp + (uint32_t)(__NVIC_PRIO_BITS)) < (uint32_t)7UL) ? (uint32_t)0UL : (uint32_t)((PriorityGroupTmp - 7UL) + (uint32_t)(__NVIC_PRIO_BITS));
 80015fe:	69fb      	ldr	r3, [r7, #28]
 8001600:	3304      	adds	r3, #4
 8001602:	2b06      	cmp	r3, #6
 8001604:	d902      	bls.n	800160c <NVIC_EncodePriority+0x30>
 8001606:	69fb      	ldr	r3, [r7, #28]
 8001608:	3b03      	subs	r3, #3
 800160a:	e000      	b.n	800160e <NVIC_EncodePriority+0x32>
 800160c:	2300      	movs	r3, #0
 800160e:	617b      	str	r3, [r7, #20]
           ((PreemptPriority & (uint32_t)((1UL << (PreemptPriorityBits)) - 1UL)) << SubPriorityBits) |
 8001610:	f04f 32ff 	mov.w	r2, #4294967295
 8001614:	69bb      	ldr	r3, [r7, #24]
 8001616:	fa02 f303 	lsl.w	r3, r2, r3
 800161a:	43da      	mvns	r2, r3
 800161c:	68bb      	ldr	r3, [r7, #8]
 800161e:	401a      	ands	r2, r3
 8001620:	697b      	ldr	r3, [r7, #20]
 8001622:	409a      	lsls	r2, r3
           ((SubPriority     & (uint32_t)((1UL << (SubPriorityBits    )) - 1UL)))
 8001624:	f04f 31ff 	mov.w	r1, #4294967295
 8001628:	697b      	ldr	r3, [r7, #20]
 800162a:	fa01 f303 	lsl.w	r3, r1, r3
 800162e:	43d9      	mvns	r1, r3
 8001630:	687b      	ldr	r3, [r7, #4]
 8001632:	400b      	ands	r3, r1
           ((PreemptPriority & (uint32_t)((1UL << (PreemptPriorityBits)) - 1UL)) << SubPriorityBits) |
 8001634:	4313      	orrs	r3, r2
}
 8001636:	4618      	mov	r0, r3
 8001638:	3724      	adds	r7, #36	; 0x24
 800163a:	46bd      	mov	sp, r7
 800163c:	f85d 7b04 	ldr.w	r7, [sp], #4
 8001640:	4770      	bx	lr
	...

08001644 <LL_APB1_GRP1_EnableClock>:
{
 8001644:	b480      	push	{r7}
 8001646:	b085      	sub	sp, #20
 8001648:	af00      	add	r7, sp, #0
 800164a:	6078      	str	r0, [r7, #4]
  SET_BIT(RCC->APB1ENR, Periphs);
 800164c:	4b08      	ldr	r3, [pc, #32]	; (8001670 <LL_APB1_GRP1_EnableClock+0x2c>)
 800164e:	69da      	ldr	r2, [r3, #28]
 8001650:	4907      	ldr	r1, [pc, #28]	; (8001670 <LL_APB1_GRP1_EnableClock+0x2c>)
 8001652:	687b      	ldr	r3, [r7, #4]
 8001654:	4313      	orrs	r3, r2
 8001656:	61cb      	str	r3, [r1, #28]
  tmpreg = READ_BIT(RCC->APB1ENR, Periphs);
 8001658:	4b05      	ldr	r3, [pc, #20]	; (8001670 <LL_APB1_GRP1_EnableClock+0x2c>)
 800165a:	69da      	ldr	r2, [r3, #28]
 800165c:	687b      	ldr	r3, [r7, #4]
 800165e:	4013      	ands	r3, r2
 8001660:	60fb      	str	r3, [r7, #12]
  (void)tmpreg;
 8001662:	68fb      	ldr	r3, [r7, #12]
}
 8001664:	bf00      	nop
 8001666:	3714      	adds	r7, #20
 8001668:	46bd      	mov	sp, r7
 800166a:	f85d 7b04 	ldr.w	r7, [sp], #4
 800166e:	4770      	bx	lr
 8001670:	40021000 	.word	0x40021000

08001674 <LL_SYSTICK_EnableIT>:
  * @brief  Enable SysTick exception request
  * @rmtoll STK_CTRL     TICKINT       LL_SYSTICK_EnableIT
  * @retval None
  */
__STATIC_INLINE void LL_SYSTICK_EnableIT(void)
{
 8001674:	b480      	push	{r7}
 8001676:	af00      	add	r7, sp, #0
  SET_BIT(SysTick->CTRL, SysTick_CTRL_TICKINT_Msk);
 8001678:	4b05      	ldr	r3, [pc, #20]	; (8001690 <LL_SYSTICK_EnableIT+0x1c>)
 800167a:	681b      	ldr	r3, [r3, #0]
 800167c:	4a04      	ldr	r2, [pc, #16]	; (8001690 <LL_SYSTICK_EnableIT+0x1c>)
 800167e:	f043 0302 	orr.w	r3, r3, #2
 8001682:	6013      	str	r3, [r2, #0]
}
 8001684:	bf00      	nop
 8001686:	46bd      	mov	sp, r7
 8001688:	f85d 7b04 	ldr.w	r7, [sp], #4
 800168c:	4770      	bx	lr
 800168e:	bf00      	nop
 8001690:	e000e010 	.word	0xe000e010

08001694 <LL_TIM_EnableCounter>:
{
 8001694:	b480      	push	{r7}
 8001696:	b083      	sub	sp, #12
 8001698:	af00      	add	r7, sp, #0
 800169a:	6078      	str	r0, [r7, #4]
  SET_BIT(TIMx->CR1, TIM_CR1_CEN);
 800169c:	687b      	ldr	r3, [r7, #4]
 800169e:	681b      	ldr	r3, [r3, #0]
 80016a0:	f043 0201 	orr.w	r2, r3, #1
 80016a4:	687b      	ldr	r3, [r7, #4]
 80016a6:	601a      	str	r2, [r3, #0]
}
 80016a8:	bf00      	nop
 80016aa:	370c      	adds	r7, #12
 80016ac:	46bd      	mov	sp, r7
 80016ae:	f85d 7b04 	ldr.w	r7, [sp], #4
 80016b2:	4770      	bx	lr

080016b4 <LL_TIM_EnableARRPreload>:
{
 80016b4:	b480      	push	{r7}
 80016b6:	b083      	sub	sp, #12
 80016b8:	af00      	add	r7, sp, #0
 80016ba:	6078      	str	r0, [r7, #4]
  SET_BIT(TIMx->CR1, TIM_CR1_ARPE);
 80016bc:	687b      	ldr	r3, [r7, #4]
 80016be:	681b      	ldr	r3, [r3, #0]
 80016c0:	f043 0280 	orr.w	r2, r3, #128	; 0x80
 80016c4:	687b      	ldr	r3, [r7, #4]
 80016c6:	601a      	str	r2, [r3, #0]
}
 80016c8:	bf00      	nop
 80016ca:	370c      	adds	r7, #12
 80016cc:	46bd      	mov	sp, r7
 80016ce:	f85d 7b04 	ldr.w	r7, [sp], #4
 80016d2:	4770      	bx	lr

080016d4 <LL_TIM_OC_DisableFast>:
{
 80016d4:	b480      	push	{r7}
 80016d6:	b085      	sub	sp, #20
 80016d8:	af00      	add	r7, sp, #0
 80016da:	6078      	str	r0, [r7, #4]
 80016dc:	6039      	str	r1, [r7, #0]
  uint8_t iChannel = TIM_GET_CHANNEL_INDEX(Channel);
 80016de:	683b      	ldr	r3, [r7, #0]
 80016e0:	2b01      	cmp	r3, #1
 80016e2:	d028      	beq.n	8001736 <LL_TIM_OC_DisableFast+0x62>
 80016e4:	683b      	ldr	r3, [r7, #0]
 80016e6:	2b04      	cmp	r3, #4
 80016e8:	d023      	beq.n	8001732 <LL_TIM_OC_DisableFast+0x5e>
 80016ea:	683b      	ldr	r3, [r7, #0]
 80016ec:	2b10      	cmp	r3, #16
 80016ee:	d01e      	beq.n	800172e <LL_TIM_OC_DisableFast+0x5a>
 80016f0:	683b      	ldr	r3, [r7, #0]
 80016f2:	2b40      	cmp	r3, #64	; 0x40
 80016f4:	d019      	beq.n	800172a <LL_TIM_OC_DisableFast+0x56>
 80016f6:	683b      	ldr	r3, [r7, #0]
 80016f8:	f5b3 7f80 	cmp.w	r3, #256	; 0x100
 80016fc:	d013      	beq.n	8001726 <LL_TIM_OC_DisableFast+0x52>
 80016fe:	683b      	ldr	r3, [r7, #0]
 8001700:	f5b3 6f80 	cmp.w	r3, #1024	; 0x400
 8001704:	d00d      	beq.n	8001722 <LL_TIM_OC_DisableFast+0x4e>
 8001706:	683b      	ldr	r3, [r7, #0]
 8001708:	f5b3 5f80 	cmp.w	r3, #4096	; 0x1000
 800170c:	d007      	beq.n	800171e <LL_TIM_OC_DisableFast+0x4a>
 800170e:	683b      	ldr	r3, [r7, #0]
 8001710:	f5b3 3f80 	cmp.w	r3, #65536	; 0x10000
 8001714:	d101      	bne.n	800171a <LL_TIM_OC_DisableFast+0x46>
 8001716:	2307      	movs	r3, #7
 8001718:	e00e      	b.n	8001738 <LL_TIM_OC_DisableFast+0x64>
 800171a:	2308      	movs	r3, #8
 800171c:	e00c      	b.n	8001738 <LL_TIM_OC_DisableFast+0x64>
 800171e:	2306      	movs	r3, #6
 8001720:	e00a      	b.n	8001738 <LL_TIM_OC_DisableFast+0x64>
 8001722:	2305      	movs	r3, #5
 8001724:	e008      	b.n	8001738 <LL_TIM_OC_DisableFast+0x64>
 8001726:	2304      	movs	r3, #4
 8001728:	e006      	b.n	8001738 <LL_TIM_OC_DisableFast+0x64>
 800172a:	2303      	movs	r3, #3
 800172c:	e004      	b.n	8001738 <LL_TIM_OC_DisableFast+0x64>
 800172e:	2302      	movs	r3, #2
 8001730:	e002      	b.n	8001738 <LL_TIM_OC_DisableFast+0x64>
 8001732:	2301      	movs	r3, #1
 8001734:	e000      	b.n	8001738 <LL_TIM_OC_DisableFast+0x64>
 8001736:	2300      	movs	r3, #0
 8001738:	73fb      	strb	r3, [r7, #15]
  __IO uint32_t *pReg = (__IO uint32_t *)((uint32_t)((uint32_t)(&TIMx->CCMR1) + OFFSET_TAB_CCMRx[iChannel]));
 800173a:	687b      	ldr	r3, [r7, #4]
 800173c:	3318      	adds	r3, #24
 800173e:	4619      	mov	r1, r3
 8001740:	7bfb      	ldrb	r3, [r7, #15]
 8001742:	4a0b      	ldr	r2, [pc, #44]	; (8001770 <LL_TIM_OC_DisableFast+0x9c>)
 8001744:	5cd3      	ldrb	r3, [r2, r3]
 8001746:	440b      	add	r3, r1
 8001748:	60bb      	str	r3, [r7, #8]
  CLEAR_BIT(*pReg, (TIM_CCMR1_OC1FE << SHIFT_TAB_OCxx[iChannel]));
 800174a:	68bb      	ldr	r3, [r7, #8]
 800174c:	681a      	ldr	r2, [r3, #0]
 800174e:	7bfb      	ldrb	r3, [r7, #15]
 8001750:	4908      	ldr	r1, [pc, #32]	; (8001774 <LL_TIM_OC_DisableFast+0xa0>)
 8001752:	5ccb      	ldrb	r3, [r1, r3]
 8001754:	4619      	mov	r1, r3
 8001756:	2304      	movs	r3, #4
 8001758:	408b      	lsls	r3, r1
 800175a:	43db      	mvns	r3, r3
 800175c:	401a      	ands	r2, r3
 800175e:	68bb      	ldr	r3, [r7, #8]
 8001760:	601a      	str	r2, [r3, #0]
}
 8001762:	bf00      	nop
 8001764:	3714      	adds	r7, #20
 8001766:	46bd      	mov	sp, r7
 8001768:	f85d 7b04 	ldr.w	r7, [sp], #4
 800176c:	4770      	bx	lr
 800176e:	bf00      	nop
 8001770:	08002bc0 	.word	0x08002bc0
 8001774:	08002bcc 	.word	0x08002bcc

08001778 <LL_TIM_SetClockSource>:
{
 8001778:	b480      	push	{r7}
 800177a:	b083      	sub	sp, #12
 800177c:	af00      	add	r7, sp, #0
 800177e:	6078      	str	r0, [r7, #4]
 8001780:	6039      	str	r1, [r7, #0]
  MODIFY_REG(TIMx->SMCR, TIM_SMCR_SMS | TIM_SMCR_ECE, ClockSource);
 8001782:	687b      	ldr	r3, [r7, #4]
 8001784:	689b      	ldr	r3, [r3, #8]
 8001786:	f423 33a0 	bic.w	r3, r3, #81920	; 0x14000
 800178a:	f023 0307 	bic.w	r3, r3, #7
 800178e:	683a      	ldr	r2, [r7, #0]
 8001790:	431a      	orrs	r2, r3
 8001792:	687b      	ldr	r3, [r7, #4]
 8001794:	609a      	str	r2, [r3, #8]
}
 8001796:	bf00      	nop
 8001798:	370c      	adds	r7, #12
 800179a:	46bd      	mov	sp, r7
 800179c:	f85d 7b04 	ldr.w	r7, [sp], #4
 80017a0:	4770      	bx	lr

080017a2 <LL_TIM_SetTriggerOutput>:
{
 80017a2:	b480      	push	{r7}
 80017a4:	b083      	sub	sp, #12
 80017a6:	af00      	add	r7, sp, #0
 80017a8:	6078      	str	r0, [r7, #4]
 80017aa:	6039      	str	r1, [r7, #0]
  MODIFY_REG(TIMx->CR2, TIM_CR2_MMS, TimerSynchronization);
 80017ac:	687b      	ldr	r3, [r7, #4]
 80017ae:	685b      	ldr	r3, [r3, #4]
 80017b0:	f023 0270 	bic.w	r2, r3, #112	; 0x70
 80017b4:	683b      	ldr	r3, [r7, #0]
 80017b6:	431a      	orrs	r2, r3
 80017b8:	687b      	ldr	r3, [r7, #4]
 80017ba:	605a      	str	r2, [r3, #4]
}
 80017bc:	bf00      	nop
 80017be:	370c      	adds	r7, #12
 80017c0:	46bd      	mov	sp, r7
 80017c2:	f85d 7b04 	ldr.w	r7, [sp], #4
 80017c6:	4770      	bx	lr

080017c8 <LL_TIM_DisableMasterSlaveMode>:
{
 80017c8:	b480      	push	{r7}
 80017ca:	b083      	sub	sp, #12
 80017cc:	af00      	add	r7, sp, #0
 80017ce:	6078      	str	r0, [r7, #4]
  CLEAR_BIT(TIMx->SMCR, TIM_SMCR_MSM);
 80017d0:	687b      	ldr	r3, [r7, #4]
 80017d2:	689b      	ldr	r3, [r3, #8]
 80017d4:	f023 0280 	bic.w	r2, r3, #128	; 0x80
 80017d8:	687b      	ldr	r3, [r7, #4]
 80017da:	609a      	str	r2, [r3, #8]
}
 80017dc:	bf00      	nop
 80017de:	370c      	adds	r7, #12
 80017e0:	46bd      	mov	sp, r7
 80017e2:	f85d 7b04 	ldr.w	r7, [sp], #4
 80017e6:	4770      	bx	lr

080017e8 <LL_TIM_EnableIT_UPDATE>:
  * @rmtoll DIER         UIE           LL_TIM_EnableIT_UPDATE
  * @param  TIMx Timer instance
  * @retval None
  */
__STATIC_INLINE void LL_TIM_EnableIT_UPDATE(TIM_TypeDef *TIMx)
{
 80017e8:	b480      	push	{r7}
 80017ea:	b083      	sub	sp, #12
 80017ec:	af00      	add	r7, sp, #0
 80017ee:	6078      	str	r0, [r7, #4]
  SET_BIT(TIMx->DIER, TIM_DIER_UIE);
 80017f0:	687b      	ldr	r3, [r7, #4]
 80017f2:	68db      	ldr	r3, [r3, #12]
 80017f4:	f043 0201 	orr.w	r2, r3, #1
 80017f8:	687b      	ldr	r3, [r7, #4]
 80017fa:	60da      	str	r2, [r3, #12]
}
 80017fc:	bf00      	nop
 80017fe:	370c      	adds	r7, #12
 8001800:	46bd      	mov	sp, r7
 8001802:	f85d 7b04 	ldr.w	r7, [sp], #4
 8001806:	4770      	bx	lr

08001808 <Systick_Init>:

/* Includes ------------------------------------------------------------------*/
#include "tim.h"

/* USER CODE BEGIN 0 */
void Systick_Init(void){
 8001808:	b580      	push	{r7, lr}
 800180a:	af00      	add	r7, sp, #0
	SysTick->CTRL = 0;
 800180c:	4b06      	ldr	r3, [pc, #24]	; (8001828 <Systick_Init+0x20>)
 800180e:	2200      	movs	r2, #0
 8001810:	601a      	str	r2, [r3, #0]
	SysTick->VAL = 0; /* Load the SysTick Counter Value */
 8001812:	4b05      	ldr	r3, [pc, #20]	; (8001828 <Systick_Init+0x20>)
 8001814:	2200      	movs	r2, #0
 8001816:	609a      	str	r2, [r3, #8]
	SysTick->CTRL = (SysTick_CTRL_TICKINT_Msk   |  /* Enable SysTick exception */
 8001818:	4b03      	ldr	r3, [pc, #12]	; (8001828 <Systick_Init+0x20>)
 800181a:	2207      	movs	r2, #7
 800181c:	601a      	str	r2, [r3, #0]
					 SysTick_CTRL_ENABLE_Msk) |    /* Enable SysTick system timer */
					 SysTick_CTRL_CLKSOURCE_Msk;   /* Use processor clock source */
	LL_SYSTICK_EnableIT();
 800181e:	f7ff ff29 	bl	8001674 <LL_SYSTICK_EnableIT>
}
 8001822:	bf00      	nop
 8001824:	bd80      	pop	{r7, pc}
 8001826:	bf00      	nop
 8001828:	e000e010 	.word	0xe000e010

0800182c <MX_TIM3_Init>:

/* USER CODE END 0 */

/* TIM3 init function */
void MX_TIM3_Init(void)
{
 800182c:	b580      	push	{r7, lr}
 800182e:	b08e      	sub	sp, #56	; 0x38
 8001830:	af00      	add	r7, sp, #0

  /* USER CODE BEGIN TIM3_Init 0 */

  /* USER CODE END TIM3_Init 0 */

  LL_TIM_InitTypeDef TIM_InitStruct = {0};
 8001832:	f107 0324 	add.w	r3, r7, #36	; 0x24
 8001836:	2200      	movs	r2, #0
 8001838:	601a      	str	r2, [r3, #0]
 800183a:	605a      	str	r2, [r3, #4]
 800183c:	609a      	str	r2, [r3, #8]
 800183e:	60da      	str	r2, [r3, #12]
 8001840:	611a      	str	r2, [r3, #16]
  LL_TIM_OC_InitTypeDef TIM_OC_InitStruct = {0};
 8001842:	1d3b      	adds	r3, r7, #4
 8001844:	2220      	movs	r2, #32
 8001846:	2100      	movs	r1, #0
 8001848:	4618      	mov	r0, r3
 800184a:	f001 f96f 	bl	8002b2c <memset>

  /* Peripheral clock enable */
  LL_APB1_GRP1_EnableClock(LL_APB1_GRP1_PERIPH_TIM3);
 800184e:	2002      	movs	r0, #2
 8001850:	f7ff fef8 	bl	8001644 <LL_APB1_GRP1_EnableClock>

  /* TIM3 interrupt Init */
  NVIC_SetPriority(TIM3_IRQn, NVIC_EncodePriority(NVIC_GetPriorityGrouping(),15, 0));
 8001854:	f7ff fe6c 	bl	8001530 <__NVIC_GetPriorityGrouping>
 8001858:	4603      	mov	r3, r0
 800185a:	2200      	movs	r2, #0
 800185c:	210f      	movs	r1, #15
 800185e:	4618      	mov	r0, r3
 8001860:	f7ff febc 	bl	80015dc <NVIC_EncodePriority>
 8001864:	4603      	mov	r3, r0
 8001866:	4619      	mov	r1, r3
 8001868:	201d      	movs	r0, #29
 800186a:	f7ff fe8d 	bl	8001588 <__NVIC_SetPriority>
  NVIC_EnableIRQ(TIM3_IRQn);
 800186e:	201d      	movs	r0, #29
 8001870:	f7ff fe6c 	bl	800154c <__NVIC_EnableIRQ>

  /* USER CODE BEGIN TIM3_Init 1 */
  /* USER CODE END TIM3_Init 1 */
  TIM_InitStruct.Prescaler = 7999;
 8001874:	f641 733f 	movw	r3, #7999	; 0x1f3f
 8001878:	84bb      	strh	r3, [r7, #36]	; 0x24
  TIM_InitStruct.CounterMode = LL_TIM_COUNTERMODE_UP;
 800187a:	2300      	movs	r3, #0
 800187c:	62bb      	str	r3, [r7, #40]	; 0x28
  TIM_InitStruct.Autoreload = 19;
 800187e:	2313      	movs	r3, #19
 8001880:	62fb      	str	r3, [r7, #44]	; 0x2c
  TIM_InitStruct.ClockDivision = LL_TIM_CLOCKDIVISION_DIV1;
 8001882:	2300      	movs	r3, #0
 8001884:	633b      	str	r3, [r7, #48]	; 0x30
  LL_TIM_Init(TIM3, &TIM_InitStruct);
 8001886:	f107 0324 	add.w	r3, r7, #36	; 0x24
 800188a:	4619      	mov	r1, r3
 800188c:	4817      	ldr	r0, [pc, #92]	; (80018ec <MX_TIM3_Init+0xc0>)
 800188e:	f000 fd61 	bl	8002354 <LL_TIM_Init>
  LL_TIM_EnableARRPreload(TIM3);
 8001892:	4816      	ldr	r0, [pc, #88]	; (80018ec <MX_TIM3_Init+0xc0>)
 8001894:	f7ff ff0e 	bl	80016b4 <LL_TIM_EnableARRPreload>
  LL_TIM_SetClockSource(TIM3, LL_TIM_CLOCKSOURCE_INTERNAL);
 8001898:	2100      	movs	r1, #0
 800189a:	4814      	ldr	r0, [pc, #80]	; (80018ec <MX_TIM3_Init+0xc0>)
 800189c:	f7ff ff6c 	bl	8001778 <LL_TIM_SetClockSource>
  TIM_OC_InitStruct.OCMode = LL_TIM_OCMODE_ACTIVE;
 80018a0:	2310      	movs	r3, #16
 80018a2:	607b      	str	r3, [r7, #4]
  TIM_OC_InitStruct.OCState = LL_TIM_OCSTATE_DISABLE;
 80018a4:	2300      	movs	r3, #0
 80018a6:	60bb      	str	r3, [r7, #8]
  TIM_OC_InitStruct.OCNState = LL_TIM_OCSTATE_DISABLE;
 80018a8:	2300      	movs	r3, #0
 80018aa:	60fb      	str	r3, [r7, #12]
  TIM_OC_InitStruct.CompareValue = 0;
 80018ac:	2300      	movs	r3, #0
 80018ae:	613b      	str	r3, [r7, #16]
  TIM_OC_InitStruct.OCPolarity = LL_TIM_OCPOLARITY_HIGH;
 80018b0:	2300      	movs	r3, #0
 80018b2:	617b      	str	r3, [r7, #20]
  LL_TIM_OC_Init(TIM3, LL_TIM_CHANNEL_CH1, &TIM_OC_InitStruct);
 80018b4:	1d3b      	adds	r3, r7, #4
 80018b6:	461a      	mov	r2, r3
 80018b8:	2101      	movs	r1, #1
 80018ba:	480c      	ldr	r0, [pc, #48]	; (80018ec <MX_TIM3_Init+0xc0>)
 80018bc:	f000 fdbc 	bl	8002438 <LL_TIM_OC_Init>
  LL_TIM_OC_DisableFast(TIM3, LL_TIM_CHANNEL_CH1);
 80018c0:	2101      	movs	r1, #1
 80018c2:	480a      	ldr	r0, [pc, #40]	; (80018ec <MX_TIM3_Init+0xc0>)
 80018c4:	f7ff ff06 	bl	80016d4 <LL_TIM_OC_DisableFast>
  LL_TIM_SetTriggerOutput(TIM3, LL_TIM_TRGO_RESET);
 80018c8:	2100      	movs	r1, #0
 80018ca:	4808      	ldr	r0, [pc, #32]	; (80018ec <MX_TIM3_Init+0xc0>)
 80018cc:	f7ff ff69 	bl	80017a2 <LL_TIM_SetTriggerOutput>
  LL_TIM_DisableMasterSlaveMode(TIM3);
 80018d0:	4806      	ldr	r0, [pc, #24]	; (80018ec <MX_TIM3_Init+0xc0>)
 80018d2:	f7ff ff79 	bl	80017c8 <LL_TIM_DisableMasterSlaveMode>
  /* USER CODE BEGIN TIM3_Init 2 */
  LL_TIM_EnableIT_UPDATE(TIM3);
 80018d6:	4805      	ldr	r0, [pc, #20]	; (80018ec <MX_TIM3_Init+0xc0>)
 80018d8:	f7ff ff86 	bl	80017e8 <LL_TIM_EnableIT_UPDATE>
  LL_TIM_EnableCounter(TIM3);
 80018dc:	4803      	ldr	r0, [pc, #12]	; (80018ec <MX_TIM3_Init+0xc0>)
 80018de:	f7ff fed9 	bl	8001694 <LL_TIM_EnableCounter>
  /* USER CODE END TIM3_Init 2 */

}
 80018e2:	bf00      	nop
 80018e4:	3738      	adds	r7, #56	; 0x38
 80018e6:	46bd      	mov	sp, r7
 80018e8:	bd80      	pop	{r7, pc}
 80018ea:	bf00      	nop
 80018ec:	40000400 	.word	0x40000400

080018f0 <Reset_Handler>:

    .section	.text.Reset_Handler
	.weak	Reset_Handler
	.type	Reset_Handler, %function
Reset_Handler:
  ldr   sp, =_estack    /* Atollic update: set stack pointer */
 80018f0:	f8df d034 	ldr.w	sp, [pc, #52]	; 8001928 <LoopForever+0x2>

/* Copy the data segment initializers from flash to SRAM */
  ldr r0, =_sdata
 80018f4:	480d      	ldr	r0, [pc, #52]	; (800192c <LoopForever+0x6>)
  ldr r1, =_edata
 80018f6:	490e      	ldr	r1, [pc, #56]	; (8001930 <LoopForever+0xa>)
  ldr r2, =_sidata
 80018f8:	4a0e      	ldr	r2, [pc, #56]	; (8001934 <LoopForever+0xe>)
  movs r3, #0
 80018fa:	2300      	movs	r3, #0
  b LoopCopyDataInit
 80018fc:	e002      	b.n	8001904 <LoopCopyDataInit>

080018fe <CopyDataInit>:

CopyDataInit:
  ldr r4, [r2, r3]
 80018fe:	58d4      	ldr	r4, [r2, r3]
  str r4, [r0, r3]
 8001900:	50c4      	str	r4, [r0, r3]
  adds r3, r3, #4
 8001902:	3304      	adds	r3, #4

08001904 <LoopCopyDataInit>:

LoopCopyDataInit:
  adds r4, r0, r3
 8001904:	18c4      	adds	r4, r0, r3
  cmp r4, r1
 8001906:	428c      	cmp	r4, r1
  bcc CopyDataInit
 8001908:	d3f9      	bcc.n	80018fe <CopyDataInit>
  
/* Zero fill the bss segment. */
  ldr r2, =_sbss
 800190a:	4a0b      	ldr	r2, [pc, #44]	; (8001938 <LoopForever+0x12>)
  ldr r4, =_ebss
 800190c:	4c0b      	ldr	r4, [pc, #44]	; (800193c <LoopForever+0x16>)
  movs r3, #0
 800190e:	2300      	movs	r3, #0
  b LoopFillZerobss
 8001910:	e001      	b.n	8001916 <LoopFillZerobss>

08001912 <FillZerobss>:

FillZerobss:
  str  r3, [r2]
 8001912:	6013      	str	r3, [r2, #0]
  adds r2, r2, #4
 8001914:	3204      	adds	r2, #4

08001916 <LoopFillZerobss>:

LoopFillZerobss:
  cmp r2, r4
 8001916:	42a2      	cmp	r2, r4
  bcc FillZerobss
 8001918:	d3fb      	bcc.n	8001912 <FillZerobss>

/* Call the clock system intitialization function.*/
    bl  SystemInit
 800191a:	f7ff fdf7 	bl	800150c <SystemInit>
/* Call static constructors */
    bl __libc_init_array
 800191e:	f001 f8e1 	bl	8002ae4 <__libc_init_array>
/* Call the application's entry point.*/
	bl	main
 8001922:	f7ff fc87 	bl	8001234 <main>

08001926 <LoopForever>:

LoopForever:
    b LoopForever
 8001926:	e7fe      	b.n	8001926 <LoopForever>
  ldr   sp, =_estack    /* Atollic update: set stack pointer */
 8001928:	20003000 	.word	0x20003000
  ldr r0, =_sdata
 800192c:	20000000 	.word	0x20000000
  ldr r1, =_edata
 8001930:	20000008 	.word	0x20000008
  ldr r2, =_sidata
 8001934:	08002be0 	.word	0x08002be0
  ldr r2, =_sbss
 8001938:	20000008 	.word	0x20000008
  ldr r4, =_ebss
 800193c:	200000bc 	.word	0x200000bc

08001940 <ADC1_2_IRQHandler>:
 * @retval : None
*/
    .section	.text.Default_Handler,"ax",%progbits
Default_Handler:
Infinite_Loop:
	b	Infinite_Loop
 8001940:	e7fe      	b.n	8001940 <ADC1_2_IRQHandler>
	...

08001944 <LL_EXTI_EnableIT_0_31>:
  *         @arg @ref LL_EXTI_LINE_ALL_0_31
  * @note   Please check each device line mapping for EXTI Line availability
  * @retval None
  */
__STATIC_INLINE void LL_EXTI_EnableIT_0_31(uint32_t ExtiLine)
{
 8001944:	b480      	push	{r7}
 8001946:	b083      	sub	sp, #12
 8001948:	af00      	add	r7, sp, #0
 800194a:	6078      	str	r0, [r7, #4]
  SET_BIT(EXTI->IMR, ExtiLine);
 800194c:	4b05      	ldr	r3, [pc, #20]	; (8001964 <LL_EXTI_EnableIT_0_31+0x20>)
 800194e:	681a      	ldr	r2, [r3, #0]
 8001950:	4904      	ldr	r1, [pc, #16]	; (8001964 <LL_EXTI_EnableIT_0_31+0x20>)
 8001952:	687b      	ldr	r3, [r7, #4]
 8001954:	4313      	orrs	r3, r2
 8001956:	600b      	str	r3, [r1, #0]
}
 8001958:	bf00      	nop
 800195a:	370c      	adds	r7, #12
 800195c:	46bd      	mov	sp, r7
 800195e:	f85d 7b04 	ldr.w	r7, [sp], #4
 8001962:	4770      	bx	lr
 8001964:	40010400 	.word	0x40010400

08001968 <LL_EXTI_EnableIT_32_63>:
  *         @arg @ref LL_EXTI_LINE_39
  *         @arg @ref LL_EXTI_LINE_ALL_32_63
  * @retval None
  */
__STATIC_INLINE void LL_EXTI_EnableIT_32_63(uint32_t ExtiLine)
{
 8001968:	b480      	push	{r7}
 800196a:	b083      	sub	sp, #12
 800196c:	af00      	add	r7, sp, #0
 800196e:	6078      	str	r0, [r7, #4]
  SET_BIT(EXTI->IMR2, ExtiLine);
 8001970:	4b05      	ldr	r3, [pc, #20]	; (8001988 <LL_EXTI_EnableIT_32_63+0x20>)
 8001972:	6a1a      	ldr	r2, [r3, #32]
 8001974:	4904      	ldr	r1, [pc, #16]	; (8001988 <LL_EXTI_EnableIT_32_63+0x20>)
 8001976:	687b      	ldr	r3, [r7, #4]
 8001978:	4313      	orrs	r3, r2
 800197a:	620b      	str	r3, [r1, #32]
}
 800197c:	bf00      	nop
 800197e:	370c      	adds	r7, #12
 8001980:	46bd      	mov	sp, r7
 8001982:	f85d 7b04 	ldr.w	r7, [sp], #4
 8001986:	4770      	bx	lr
 8001988:	40010400 	.word	0x40010400

0800198c <LL_EXTI_DisableIT_0_31>:
  *         @arg @ref LL_EXTI_LINE_ALL_0_31
  * @note   Please check each device line mapping for EXTI Line availability
  * @retval None
  */
__STATIC_INLINE void LL_EXTI_DisableIT_0_31(uint32_t ExtiLine)
{
 800198c:	b480      	push	{r7}
 800198e:	b083      	sub	sp, #12
 8001990:	af00      	add	r7, sp, #0
 8001992:	6078      	str	r0, [r7, #4]
  CLEAR_BIT(EXTI->IMR, ExtiLine);
 8001994:	4b06      	ldr	r3, [pc, #24]	; (80019b0 <LL_EXTI_DisableIT_0_31+0x24>)
 8001996:	681a      	ldr	r2, [r3, #0]
 8001998:	687b      	ldr	r3, [r7, #4]
 800199a:	43db      	mvns	r3, r3
 800199c:	4904      	ldr	r1, [pc, #16]	; (80019b0 <LL_EXTI_DisableIT_0_31+0x24>)
 800199e:	4013      	ands	r3, r2
 80019a0:	600b      	str	r3, [r1, #0]
}
 80019a2:	bf00      	nop
 80019a4:	370c      	adds	r7, #12
 80019a6:	46bd      	mov	sp, r7
 80019a8:	f85d 7b04 	ldr.w	r7, [sp], #4
 80019ac:	4770      	bx	lr
 80019ae:	bf00      	nop
 80019b0:	40010400 	.word	0x40010400

080019b4 <LL_EXTI_DisableIT_32_63>:
  *         @arg @ref LL_EXTI_LINE_39
  *         @arg @ref LL_EXTI_LINE_ALL_32_63
  * @retval None
  */
__STATIC_INLINE void LL_EXTI_DisableIT_32_63(uint32_t ExtiLine)
{
 80019b4:	b480      	push	{r7}
 80019b6:	b083      	sub	sp, #12
 80019b8:	af00      	add	r7, sp, #0
 80019ba:	6078      	str	r0, [r7, #4]
  CLEAR_BIT(EXTI->IMR2, ExtiLine);
 80019bc:	4b06      	ldr	r3, [pc, #24]	; (80019d8 <LL_EXTI_DisableIT_32_63+0x24>)
 80019be:	6a1a      	ldr	r2, [r3, #32]
 80019c0:	687b      	ldr	r3, [r7, #4]
 80019c2:	43db      	mvns	r3, r3
 80019c4:	4904      	ldr	r1, [pc, #16]	; (80019d8 <LL_EXTI_DisableIT_32_63+0x24>)
 80019c6:	4013      	ands	r3, r2
 80019c8:	620b      	str	r3, [r1, #32]
}
 80019ca:	bf00      	nop
 80019cc:	370c      	adds	r7, #12
 80019ce:	46bd      	mov	sp, r7
 80019d0:	f85d 7b04 	ldr.w	r7, [sp], #4
 80019d4:	4770      	bx	lr
 80019d6:	bf00      	nop
 80019d8:	40010400 	.word	0x40010400

080019dc <LL_EXTI_EnableEvent_0_31>:
  *         @arg @ref LL_EXTI_LINE_ALL_0_31
  * @note   Please check each device line mapping for EXTI Line availability
  * @retval None
  */
__STATIC_INLINE void LL_EXTI_EnableEvent_0_31(uint32_t ExtiLine)
{
 80019dc:	b480      	push	{r7}
 80019de:	b083      	sub	sp, #12
 80019e0:	af00      	add	r7, sp, #0
 80019e2:	6078      	str	r0, [r7, #4]
  SET_BIT(EXTI->EMR, ExtiLine);
 80019e4:	4b05      	ldr	r3, [pc, #20]	; (80019fc <LL_EXTI_EnableEvent_0_31+0x20>)
 80019e6:	685a      	ldr	r2, [r3, #4]
 80019e8:	4904      	ldr	r1, [pc, #16]	; (80019fc <LL_EXTI_EnableEvent_0_31+0x20>)
 80019ea:	687b      	ldr	r3, [r7, #4]
 80019ec:	4313      	orrs	r3, r2
 80019ee:	604b      	str	r3, [r1, #4]

}
 80019f0:	bf00      	nop
 80019f2:	370c      	adds	r7, #12
 80019f4:	46bd      	mov	sp, r7
 80019f6:	f85d 7b04 	ldr.w	r7, [sp], #4
 80019fa:	4770      	bx	lr
 80019fc:	40010400 	.word	0x40010400

08001a00 <LL_EXTI_EnableEvent_32_63>:
  *         @arg @ref LL_EXTI_LINE_39
  *         @arg @ref LL_EXTI_LINE_ALL_32_63
  * @retval None
  */
__STATIC_INLINE void LL_EXTI_EnableEvent_32_63(uint32_t ExtiLine)
{
 8001a00:	b480      	push	{r7}
 8001a02:	b083      	sub	sp, #12
 8001a04:	af00      	add	r7, sp, #0
 8001a06:	6078      	str	r0, [r7, #4]
  SET_BIT(EXTI->EMR2, ExtiLine);
 8001a08:	4b05      	ldr	r3, [pc, #20]	; (8001a20 <LL_EXTI_EnableEvent_32_63+0x20>)
 8001a0a:	6a5a      	ldr	r2, [r3, #36]	; 0x24
 8001a0c:	4904      	ldr	r1, [pc, #16]	; (8001a20 <LL_EXTI_EnableEvent_32_63+0x20>)
 8001a0e:	687b      	ldr	r3, [r7, #4]
 8001a10:	4313      	orrs	r3, r2
 8001a12:	624b      	str	r3, [r1, #36]	; 0x24
}
 8001a14:	bf00      	nop
 8001a16:	370c      	adds	r7, #12
 8001a18:	46bd      	mov	sp, r7
 8001a1a:	f85d 7b04 	ldr.w	r7, [sp], #4
 8001a1e:	4770      	bx	lr
 8001a20:	40010400 	.word	0x40010400

08001a24 <LL_EXTI_DisableEvent_0_31>:
  *         @arg @ref LL_EXTI_LINE_ALL_0_31
  * @note   Please check each device line mapping for EXTI Line availability
  * @retval None
  */
__STATIC_INLINE void LL_EXTI_DisableEvent_0_31(uint32_t ExtiLine)
{
 8001a24:	b480      	push	{r7}
 8001a26:	b083      	sub	sp, #12
 8001a28:	af00      	add	r7, sp, #0
 8001a2a:	6078      	str	r0, [r7, #4]
  CLEAR_BIT(EXTI->EMR, ExtiLine);
 8001a2c:	4b06      	ldr	r3, [pc, #24]	; (8001a48 <LL_EXTI_DisableEvent_0_31+0x24>)
 8001a2e:	685a      	ldr	r2, [r3, #4]
 8001a30:	687b      	ldr	r3, [r7, #4]
 8001a32:	43db      	mvns	r3, r3
 8001a34:	4904      	ldr	r1, [pc, #16]	; (8001a48 <LL_EXTI_DisableEvent_0_31+0x24>)
 8001a36:	4013      	ands	r3, r2
 8001a38:	604b      	str	r3, [r1, #4]
}
 8001a3a:	bf00      	nop
 8001a3c:	370c      	adds	r7, #12
 8001a3e:	46bd      	mov	sp, r7
 8001a40:	f85d 7b04 	ldr.w	r7, [sp], #4
 8001a44:	4770      	bx	lr
 8001a46:	bf00      	nop
 8001a48:	40010400 	.word	0x40010400

08001a4c <LL_EXTI_DisableEvent_32_63>:
  *         @arg @ref LL_EXTI_LINE_39
  *         @arg @ref LL_EXTI_LINE_ALL_32_63
  * @retval None
  */
__STATIC_INLINE void LL_EXTI_DisableEvent_32_63(uint32_t ExtiLine)
{
 8001a4c:	b480      	push	{r7}
 8001a4e:	b083      	sub	sp, #12
 8001a50:	af00      	add	r7, sp, #0
 8001a52:	6078      	str	r0, [r7, #4]
  CLEAR_BIT(EXTI->EMR2, ExtiLine);
 8001a54:	4b06      	ldr	r3, [pc, #24]	; (8001a70 <LL_EXTI_DisableEvent_32_63+0x24>)
 8001a56:	6a5a      	ldr	r2, [r3, #36]	; 0x24
 8001a58:	687b      	ldr	r3, [r7, #4]
 8001a5a:	43db      	mvns	r3, r3
 8001a5c:	4904      	ldr	r1, [pc, #16]	; (8001a70 <LL_EXTI_DisableEvent_32_63+0x24>)
 8001a5e:	4013      	ands	r3, r2
 8001a60:	624b      	str	r3, [r1, #36]	; 0x24
}
 8001a62:	bf00      	nop
 8001a64:	370c      	adds	r7, #12
 8001a66:	46bd      	mov	sp, r7
 8001a68:	f85d 7b04 	ldr.w	r7, [sp], #4
 8001a6c:	4770      	bx	lr
 8001a6e:	bf00      	nop
 8001a70:	40010400 	.word	0x40010400

08001a74 <LL_EXTI_EnableRisingTrig_0_31>:
  *         @arg @ref LL_EXTI_LINE_31
  * @note   Please check each device line mapping for EXTI Line availability
  * @retval None
  */
__STATIC_INLINE void LL_EXTI_EnableRisingTrig_0_31(uint32_t ExtiLine)
{
 8001a74:	b480      	push	{r7}
 8001a76:	b083      	sub	sp, #12
 8001a78:	af00      	add	r7, sp, #0
 8001a7a:	6078      	str	r0, [r7, #4]
  SET_BIT(EXTI->RTSR, ExtiLine);
 8001a7c:	4b05      	ldr	r3, [pc, #20]	; (8001a94 <LL_EXTI_EnableRisingTrig_0_31+0x20>)
 8001a7e:	689a      	ldr	r2, [r3, #8]
 8001a80:	4904      	ldr	r1, [pc, #16]	; (8001a94 <LL_EXTI_EnableRisingTrig_0_31+0x20>)
 8001a82:	687b      	ldr	r3, [r7, #4]
 8001a84:	4313      	orrs	r3, r2
 8001a86:	608b      	str	r3, [r1, #8]

}
 8001a88:	bf00      	nop
 8001a8a:	370c      	adds	r7, #12
 8001a8c:	46bd      	mov	sp, r7
 8001a8e:	f85d 7b04 	ldr.w	r7, [sp], #4
 8001a92:	4770      	bx	lr
 8001a94:	40010400 	.word	0x40010400

08001a98 <LL_EXTI_EnableRisingTrig_32_63>:
  *         @arg @ref LL_EXTI_LINE_37
  *         @arg @ref LL_EXTI_LINE_38
  * @retval None
  */
__STATIC_INLINE void LL_EXTI_EnableRisingTrig_32_63(uint32_t ExtiLine)
{
 8001a98:	b480      	push	{r7}
 8001a9a:	b083      	sub	sp, #12
 8001a9c:	af00      	add	r7, sp, #0
 8001a9e:	6078      	str	r0, [r7, #4]
  SET_BIT(EXTI->RTSR2, ExtiLine);
 8001aa0:	4b05      	ldr	r3, [pc, #20]	; (8001ab8 <LL_EXTI_EnableRisingTrig_32_63+0x20>)
 8001aa2:	6a9a      	ldr	r2, [r3, #40]	; 0x28
 8001aa4:	4904      	ldr	r1, [pc, #16]	; (8001ab8 <LL_EXTI_EnableRisingTrig_32_63+0x20>)
 8001aa6:	687b      	ldr	r3, [r7, #4]
 8001aa8:	4313      	orrs	r3, r2
 8001aaa:	628b      	str	r3, [r1, #40]	; 0x28
}
 8001aac:	bf00      	nop
 8001aae:	370c      	adds	r7, #12
 8001ab0:	46bd      	mov	sp, r7
 8001ab2:	f85d 7b04 	ldr.w	r7, [sp], #4
 8001ab6:	4770      	bx	lr
 8001ab8:	40010400 	.word	0x40010400

08001abc <LL_EXTI_DisableRisingTrig_0_31>:
  *         @arg @ref LL_EXTI_LINE_31
  * @note   Please check each device line mapping for EXTI Line availability
  * @retval None
  */
__STATIC_INLINE void LL_EXTI_DisableRisingTrig_0_31(uint32_t ExtiLine)
{
 8001abc:	b480      	push	{r7}
 8001abe:	b083      	sub	sp, #12
 8001ac0:	af00      	add	r7, sp, #0
 8001ac2:	6078      	str	r0, [r7, #4]
  CLEAR_BIT(EXTI->RTSR, ExtiLine);
 8001ac4:	4b06      	ldr	r3, [pc, #24]	; (8001ae0 <LL_EXTI_DisableRisingTrig_0_31+0x24>)
 8001ac6:	689a      	ldr	r2, [r3, #8]
 8001ac8:	687b      	ldr	r3, [r7, #4]
 8001aca:	43db      	mvns	r3, r3
 8001acc:	4904      	ldr	r1, [pc, #16]	; (8001ae0 <LL_EXTI_DisableRisingTrig_0_31+0x24>)
 8001ace:	4013      	ands	r3, r2
 8001ad0:	608b      	str	r3, [r1, #8]

}
 8001ad2:	bf00      	nop
 8001ad4:	370c      	adds	r7, #12
 8001ad6:	46bd      	mov	sp, r7
 8001ad8:	f85d 7b04 	ldr.w	r7, [sp], #4
 8001adc:	4770      	bx	lr
 8001ade:	bf00      	nop
 8001ae0:	40010400 	.word	0x40010400

08001ae4 <LL_EXTI_DisableRisingTrig_32_63>:
  *         @arg @ref LL_EXTI_LINE_37
  *         @arg @ref LL_EXTI_LINE_38
  * @retval None
  */
__STATIC_INLINE void LL_EXTI_DisableRisingTrig_32_63(uint32_t ExtiLine)
{
 8001ae4:	b480      	push	{r7}
 8001ae6:	b083      	sub	sp, #12
 8001ae8:	af00      	add	r7, sp, #0
 8001aea:	6078      	str	r0, [r7, #4]
  CLEAR_BIT(EXTI->RTSR2, ExtiLine);
 8001aec:	4b06      	ldr	r3, [pc, #24]	; (8001b08 <LL_EXTI_DisableRisingTrig_32_63+0x24>)
 8001aee:	6a9a      	ldr	r2, [r3, #40]	; 0x28
 8001af0:	687b      	ldr	r3, [r7, #4]
 8001af2:	43db      	mvns	r3, r3
 8001af4:	4904      	ldr	r1, [pc, #16]	; (8001b08 <LL_EXTI_DisableRisingTrig_32_63+0x24>)
 8001af6:	4013      	ands	r3, r2
 8001af8:	628b      	str	r3, [r1, #40]	; 0x28
}
 8001afa:	bf00      	nop
 8001afc:	370c      	adds	r7, #12
 8001afe:	46bd      	mov	sp, r7
 8001b00:	f85d 7b04 	ldr.w	r7, [sp], #4
 8001b04:	4770      	bx	lr
 8001b06:	bf00      	nop
 8001b08:	40010400 	.word	0x40010400

08001b0c <LL_EXTI_EnableFallingTrig_0_31>:
  *         @arg @ref LL_EXTI_LINE_31
  * @note   Please check each device line mapping for EXTI Line availability
  * @retval None
  */
__STATIC_INLINE void LL_EXTI_EnableFallingTrig_0_31(uint32_t ExtiLine)
{
 8001b0c:	b480      	push	{r7}
 8001b0e:	b083      	sub	sp, #12
 8001b10:	af00      	add	r7, sp, #0
 8001b12:	6078      	str	r0, [r7, #4]
  SET_BIT(EXTI->FTSR, ExtiLine);
 8001b14:	4b05      	ldr	r3, [pc, #20]	; (8001b2c <LL_EXTI_EnableFallingTrig_0_31+0x20>)
 8001b16:	68da      	ldr	r2, [r3, #12]
 8001b18:	4904      	ldr	r1, [pc, #16]	; (8001b2c <LL_EXTI_EnableFallingTrig_0_31+0x20>)
 8001b1a:	687b      	ldr	r3, [r7, #4]
 8001b1c:	4313      	orrs	r3, r2
 8001b1e:	60cb      	str	r3, [r1, #12]
}
 8001b20:	bf00      	nop
 8001b22:	370c      	adds	r7, #12
 8001b24:	46bd      	mov	sp, r7
 8001b26:	f85d 7b04 	ldr.w	r7, [sp], #4
 8001b2a:	4770      	bx	lr
 8001b2c:	40010400 	.word	0x40010400

08001b30 <LL_EXTI_EnableFallingTrig_32_63>:
  *         @arg @ref LL_EXTI_LINE_37
  *         @arg @ref LL_EXTI_LINE_38
  * @retval None
  */
__STATIC_INLINE void LL_EXTI_EnableFallingTrig_32_63(uint32_t ExtiLine)
{
 8001b30:	b480      	push	{r7}
 8001b32:	b083      	sub	sp, #12
 8001b34:	af00      	add	r7, sp, #0
 8001b36:	6078      	str	r0, [r7, #4]
  SET_BIT(EXTI->FTSR2, ExtiLine);
 8001b38:	4b05      	ldr	r3, [pc, #20]	; (8001b50 <LL_EXTI_EnableFallingTrig_32_63+0x20>)
 8001b3a:	6ada      	ldr	r2, [r3, #44]	; 0x2c
 8001b3c:	4904      	ldr	r1, [pc, #16]	; (8001b50 <LL_EXTI_EnableFallingTrig_32_63+0x20>)
 8001b3e:	687b      	ldr	r3, [r7, #4]
 8001b40:	4313      	orrs	r3, r2
 8001b42:	62cb      	str	r3, [r1, #44]	; 0x2c
}
 8001b44:	bf00      	nop
 8001b46:	370c      	adds	r7, #12
 8001b48:	46bd      	mov	sp, r7
 8001b4a:	f85d 7b04 	ldr.w	r7, [sp], #4
 8001b4e:	4770      	bx	lr
 8001b50:	40010400 	.word	0x40010400

08001b54 <LL_EXTI_DisableFallingTrig_0_31>:
  *         @arg @ref LL_EXTI_LINE_31
  * @note   Please check each device line mapping for EXTI Line availability
  * @retval None
  */
__STATIC_INLINE void LL_EXTI_DisableFallingTrig_0_31(uint32_t ExtiLine)
{
 8001b54:	b480      	push	{r7}
 8001b56:	b083      	sub	sp, #12
 8001b58:	af00      	add	r7, sp, #0
 8001b5a:	6078      	str	r0, [r7, #4]
  CLEAR_BIT(EXTI->FTSR, ExtiLine);
 8001b5c:	4b06      	ldr	r3, [pc, #24]	; (8001b78 <LL_EXTI_DisableFallingTrig_0_31+0x24>)
 8001b5e:	68da      	ldr	r2, [r3, #12]
 8001b60:	687b      	ldr	r3, [r7, #4]
 8001b62:	43db      	mvns	r3, r3
 8001b64:	4904      	ldr	r1, [pc, #16]	; (8001b78 <LL_EXTI_DisableFallingTrig_0_31+0x24>)
 8001b66:	4013      	ands	r3, r2
 8001b68:	60cb      	str	r3, [r1, #12]
}
 8001b6a:	bf00      	nop
 8001b6c:	370c      	adds	r7, #12
 8001b6e:	46bd      	mov	sp, r7
 8001b70:	f85d 7b04 	ldr.w	r7, [sp], #4
 8001b74:	4770      	bx	lr
 8001b76:	bf00      	nop
 8001b78:	40010400 	.word	0x40010400

08001b7c <LL_EXTI_DisableFallingTrig_32_63>:
  *         @arg @ref LL_EXTI_LINE_37
  *         @arg @ref LL_EXTI_LINE_38
  * @retval None
  */
__STATIC_INLINE void LL_EXTI_DisableFallingTrig_32_63(uint32_t ExtiLine)
{
 8001b7c:	b480      	push	{r7}
 8001b7e:	b083      	sub	sp, #12
 8001b80:	af00      	add	r7, sp, #0
 8001b82:	6078      	str	r0, [r7, #4]
  CLEAR_BIT(EXTI->FTSR2, ExtiLine);
 8001b84:	4b06      	ldr	r3, [pc, #24]	; (8001ba0 <LL_EXTI_DisableFallingTrig_32_63+0x24>)
 8001b86:	6ada      	ldr	r2, [r3, #44]	; 0x2c
 8001b88:	687b      	ldr	r3, [r7, #4]
 8001b8a:	43db      	mvns	r3, r3
 8001b8c:	4904      	ldr	r1, [pc, #16]	; (8001ba0 <LL_EXTI_DisableFallingTrig_32_63+0x24>)
 8001b8e:	4013      	ands	r3, r2
 8001b90:	62cb      	str	r3, [r1, #44]	; 0x2c
}
 8001b92:	bf00      	nop
 8001b94:	370c      	adds	r7, #12
 8001b96:	46bd      	mov	sp, r7
 8001b98:	f85d 7b04 	ldr.w	r7, [sp], #4
 8001b9c:	4770      	bx	lr
 8001b9e:	bf00      	nop
 8001ba0:	40010400 	.word	0x40010400

08001ba4 <LL_EXTI_Init>:
  * @retval An ErrorStatus enumeration value:
  *          - SUCCESS: EXTI registers are initialized
  *          - ERROR: not applicable
  */
uint32_t LL_EXTI_Init(LL_EXTI_InitTypeDef *EXTI_InitStruct)
{
 8001ba4:	b580      	push	{r7, lr}
 8001ba6:	b084      	sub	sp, #16
 8001ba8:	af00      	add	r7, sp, #0
 8001baa:	6078      	str	r0, [r7, #4]
  ErrorStatus status = SUCCESS;
 8001bac:	2300      	movs	r3, #0
 8001bae:	73fb      	strb	r3, [r7, #15]
#endif
  assert_param(IS_FUNCTIONAL_STATE(EXTI_InitStruct->LineCommand));
  assert_param(IS_LL_EXTI_MODE(EXTI_InitStruct->Mode));

  /* ENABLE LineCommand */
  if (EXTI_InitStruct->LineCommand != DISABLE)
 8001bb0:	687b      	ldr	r3, [r7, #4]
 8001bb2:	7a1b      	ldrb	r3, [r3, #8]
 8001bb4:	2b00      	cmp	r3, #0
 8001bb6:	f000 80cd 	beq.w	8001d54 <LL_EXTI_Init+0x1b0>
  {
    assert_param(IS_LL_EXTI_TRIGGER(EXTI_InitStruct->Trigger));

    /* Configure EXTI Lines in range from 0 to 31 */
    if (EXTI_InitStruct->Line_0_31 != LL_EXTI_LINE_NONE)
 8001bba:	687b      	ldr	r3, [r7, #4]
 8001bbc:	681b      	ldr	r3, [r3, #0]
 8001bbe:	2b00      	cmp	r3, #0
 8001bc0:	d061      	beq.n	8001c86 <LL_EXTI_Init+0xe2>
    {
      switch (EXTI_InitStruct->Mode)
 8001bc2:	687b      	ldr	r3, [r7, #4]
 8001bc4:	7a5b      	ldrb	r3, [r3, #9]
 8001bc6:	2b02      	cmp	r3, #2
 8001bc8:	d01c      	beq.n	8001c04 <LL_EXTI_Init+0x60>
 8001bca:	2b02      	cmp	r3, #2
 8001bcc:	dc25      	bgt.n	8001c1a <LL_EXTI_Init+0x76>
 8001bce:	2b00      	cmp	r3, #0
 8001bd0:	d002      	beq.n	8001bd8 <LL_EXTI_Init+0x34>
 8001bd2:	2b01      	cmp	r3, #1
 8001bd4:	d00b      	beq.n	8001bee <LL_EXTI_Init+0x4a>
 8001bd6:	e020      	b.n	8001c1a <LL_EXTI_Init+0x76>
      {
        case LL_EXTI_MODE_IT:
          /* First Disable Event on provided Lines */
          LL_EXTI_DisableEvent_0_31(EXTI_InitStruct->Line_0_31);
 8001bd8:	687b      	ldr	r3, [r7, #4]
 8001bda:	681b      	ldr	r3, [r3, #0]
 8001bdc:	4618      	mov	r0, r3
 8001bde:	f7ff ff21 	bl	8001a24 <LL_EXTI_DisableEvent_0_31>
          /* Then Enable IT on provided Lines */
          LL_EXTI_EnableIT_0_31(EXTI_InitStruct->Line_0_31);
 8001be2:	687b      	ldr	r3, [r7, #4]
 8001be4:	681b      	ldr	r3, [r3, #0]
 8001be6:	4618      	mov	r0, r3
 8001be8:	f7ff feac 	bl	8001944 <LL_EXTI_EnableIT_0_31>
          break;
 8001bec:	e018      	b.n	8001c20 <LL_EXTI_Init+0x7c>
        case LL_EXTI_MODE_EVENT:
          /* First Disable IT on provided Lines */
          LL_EXTI_DisableIT_0_31(EXTI_InitStruct->Line_0_31);
 8001bee:	687b      	ldr	r3, [r7, #4]
 8001bf0:	681b      	ldr	r3, [r3, #0]
 8001bf2:	4618      	mov	r0, r3
 8001bf4:	f7ff feca 	bl	800198c <LL_EXTI_DisableIT_0_31>
          /* Then Enable Event on provided Lines */
          LL_EXTI_EnableEvent_0_31(EXTI_InitStruct->Line_0_31);
 8001bf8:	687b      	ldr	r3, [r7, #4]
 8001bfa:	681b      	ldr	r3, [r3, #0]
 8001bfc:	4618      	mov	r0, r3
 8001bfe:	f7ff feed 	bl	80019dc <LL_EXTI_EnableEvent_0_31>
          break;
 8001c02:	e00d      	b.n	8001c20 <LL_EXTI_Init+0x7c>
        case LL_EXTI_MODE_IT_EVENT:
          /* Directly Enable IT & Event on provided Lines */
          LL_EXTI_EnableIT_0_31(EXTI_InitStruct->Line_0_31);
 8001c04:	687b      	ldr	r3, [r7, #4]
 8001c06:	681b      	ldr	r3, [r3, #0]
 8001c08:	4618      	mov	r0, r3
 8001c0a:	f7ff fe9b 	bl	8001944 <LL_EXTI_EnableIT_0_31>
          LL_EXTI_EnableEvent_0_31(EXTI_InitStruct->Line_0_31);
 8001c0e:	687b      	ldr	r3, [r7, #4]
 8001c10:	681b      	ldr	r3, [r3, #0]
 8001c12:	4618      	mov	r0, r3
 8001c14:	f7ff fee2 	bl	80019dc <LL_EXTI_EnableEvent_0_31>
          break;
 8001c18:	e002      	b.n	8001c20 <LL_EXTI_Init+0x7c>
        default:
          status = ERROR;
 8001c1a:	2301      	movs	r3, #1
 8001c1c:	73fb      	strb	r3, [r7, #15]
          break;
 8001c1e:	bf00      	nop
      }
      if (EXTI_InitStruct->Trigger != LL_EXTI_TRIGGER_NONE)
 8001c20:	687b      	ldr	r3, [r7, #4]
 8001c22:	7a9b      	ldrb	r3, [r3, #10]
 8001c24:	2b00      	cmp	r3, #0
 8001c26:	d02e      	beq.n	8001c86 <LL_EXTI_Init+0xe2>
      {
        switch (EXTI_InitStruct->Trigger)
 8001c28:	687b      	ldr	r3, [r7, #4]
 8001c2a:	7a9b      	ldrb	r3, [r3, #10]
 8001c2c:	2b03      	cmp	r3, #3
 8001c2e:	d01c      	beq.n	8001c6a <LL_EXTI_Init+0xc6>
 8001c30:	2b03      	cmp	r3, #3
 8001c32:	dc25      	bgt.n	8001c80 <LL_EXTI_Init+0xdc>
 8001c34:	2b01      	cmp	r3, #1
 8001c36:	d002      	beq.n	8001c3e <LL_EXTI_Init+0x9a>
 8001c38:	2b02      	cmp	r3, #2
 8001c3a:	d00b      	beq.n	8001c54 <LL_EXTI_Init+0xb0>
 8001c3c:	e020      	b.n	8001c80 <LL_EXTI_Init+0xdc>
        {
          case LL_EXTI_TRIGGER_RISING:
            /* First Disable Falling Trigger on provided Lines */
            LL_EXTI_DisableFallingTrig_0_31(EXTI_InitStruct->Line_0_31);
 8001c3e:	687b      	ldr	r3, [r7, #4]
 8001c40:	681b      	ldr	r3, [r3, #0]
 8001c42:	4618      	mov	r0, r3
 8001c44:	f7ff ff86 	bl	8001b54 <LL_EXTI_DisableFallingTrig_0_31>
            /* Then Enable Rising Trigger on provided Lines */
            LL_EXTI_EnableRisingTrig_0_31(EXTI_InitStruct->Line_0_31);
 8001c48:	687b      	ldr	r3, [r7, #4]
 8001c4a:	681b      	ldr	r3, [r3, #0]
 8001c4c:	4618      	mov	r0, r3
 8001c4e:	f7ff ff11 	bl	8001a74 <LL_EXTI_EnableRisingTrig_0_31>
            break;
 8001c52:	e019      	b.n	8001c88 <LL_EXTI_Init+0xe4>
          case LL_EXTI_TRIGGER_FALLING:
            /* First Disable Rising Trigger on provided Lines */
            LL_EXTI_DisableRisingTrig_0_31(EXTI_InitStruct->Line_0_31);
 8001c54:	687b      	ldr	r3, [r7, #4]
 8001c56:	681b      	ldr	r3, [r3, #0]
 8001c58:	4618      	mov	r0, r3
 8001c5a:	f7ff ff2f 	bl	8001abc <LL_EXTI_DisableRisingTrig_0_31>
            /* Then Enable Falling Trigger on provided Lines */
            LL_EXTI_EnableFallingTrig_0_31(EXTI_InitStruct->Line_0_31);
 8001c5e:	687b      	ldr	r3, [r7, #4]
 8001c60:	681b      	ldr	r3, [r3, #0]
 8001c62:	4618      	mov	r0, r3
 8001c64:	f7ff ff52 	bl	8001b0c <LL_EXTI_EnableFallingTrig_0_31>
            break;
 8001c68:	e00e      	b.n	8001c88 <LL_EXTI_Init+0xe4>
          case LL_EXTI_TRIGGER_RISING_FALLING:
            LL_EXTI_EnableRisingTrig_0_31(EXTI_InitStruct->Line_0_31);
 8001c6a:	687b      	ldr	r3, [r7, #4]
 8001c6c:	681b      	ldr	r3, [r3, #0]
 8001c6e:	4618      	mov	r0, r3
 8001c70:	f7ff ff00 	bl	8001a74 <LL_EXTI_EnableRisingTrig_0_31>
            LL_EXTI_EnableFallingTrig_0_31(EXTI_InitStruct->Line_0_31);
 8001c74:	687b      	ldr	r3, [r7, #4]
 8001c76:	681b      	ldr	r3, [r3, #0]
 8001c78:	4618      	mov	r0, r3
 8001c7a:	f7ff ff47 	bl	8001b0c <LL_EXTI_EnableFallingTrig_0_31>
            break;
 8001c7e:	e003      	b.n	8001c88 <LL_EXTI_Init+0xe4>
          default:
            status = ERROR;
 8001c80:	2301      	movs	r3, #1
 8001c82:	73fb      	strb	r3, [r7, #15]
            break;
 8001c84:	e000      	b.n	8001c88 <LL_EXTI_Init+0xe4>
        }
      }
 8001c86:	bf00      	nop
    }
#if defined(EXTI_32_63_SUPPORT)
    /* Configure EXTI Lines in range from 32 to 63 */
    if (EXTI_InitStruct->Line_32_63 != LL_EXTI_LINE_NONE)
 8001c88:	687b      	ldr	r3, [r7, #4]
 8001c8a:	685b      	ldr	r3, [r3, #4]
 8001c8c:	2b00      	cmp	r3, #0
 8001c8e:	d076      	beq.n	8001d7e <LL_EXTI_Init+0x1da>
    {
      switch (EXTI_InitStruct->Mode)
 8001c90:	687b      	ldr	r3, [r7, #4]
 8001c92:	7a5b      	ldrb	r3, [r3, #9]
 8001c94:	2b02      	cmp	r3, #2
 8001c96:	d01c      	beq.n	8001cd2 <LL_EXTI_Init+0x12e>
 8001c98:	2b02      	cmp	r3, #2
 8001c9a:	dc25      	bgt.n	8001ce8 <LL_EXTI_Init+0x144>
 8001c9c:	2b00      	cmp	r3, #0
 8001c9e:	d002      	beq.n	8001ca6 <LL_EXTI_Init+0x102>
 8001ca0:	2b01      	cmp	r3, #1
 8001ca2:	d00b      	beq.n	8001cbc <LL_EXTI_Init+0x118>
 8001ca4:	e020      	b.n	8001ce8 <LL_EXTI_Init+0x144>
      {
        case LL_EXTI_MODE_IT:
          /* First Disable Event on provided Lines */
          LL_EXTI_DisableEvent_32_63(EXTI_InitStruct->Line_32_63);
 8001ca6:	687b      	ldr	r3, [r7, #4]
 8001ca8:	685b      	ldr	r3, [r3, #4]
 8001caa:	4618      	mov	r0, r3
 8001cac:	f7ff fece 	bl	8001a4c <LL_EXTI_DisableEvent_32_63>
          /* Then Enable IT on provided Lines */
          LL_EXTI_EnableIT_32_63(EXTI_InitStruct->Line_32_63);
 8001cb0:	687b      	ldr	r3, [r7, #4]
 8001cb2:	685b      	ldr	r3, [r3, #4]
 8001cb4:	4618      	mov	r0, r3
 8001cb6:	f7ff fe57 	bl	8001968 <LL_EXTI_EnableIT_32_63>
          break;
 8001cba:	e018      	b.n	8001cee <LL_EXTI_Init+0x14a>
        case LL_EXTI_MODE_EVENT:
          /* First Disable IT on provided Lines */
          LL_EXTI_DisableIT_32_63(EXTI_InitStruct->Line_32_63);
 8001cbc:	687b      	ldr	r3, [r7, #4]
 8001cbe:	685b      	ldr	r3, [r3, #4]
 8001cc0:	4618      	mov	r0, r3
 8001cc2:	f7ff fe77 	bl	80019b4 <LL_EXTI_DisableIT_32_63>
          /* Then Enable Event on provided Lines */
          LL_EXTI_EnableEvent_32_63(EXTI_InitStruct->Line_32_63);
 8001cc6:	687b      	ldr	r3, [r7, #4]
 8001cc8:	685b      	ldr	r3, [r3, #4]
 8001cca:	4618      	mov	r0, r3
 8001ccc:	f7ff fe98 	bl	8001a00 <LL_EXTI_EnableEvent_32_63>
          break;
 8001cd0:	e00d      	b.n	8001cee <LL_EXTI_Init+0x14a>
        case LL_EXTI_MODE_IT_EVENT:
          /* Directly Enable IT & Event on provided Lines */
          LL_EXTI_EnableIT_32_63(EXTI_InitStruct->Line_32_63);
 8001cd2:	687b      	ldr	r3, [r7, #4]
 8001cd4:	685b      	ldr	r3, [r3, #4]
 8001cd6:	4618      	mov	r0, r3
 8001cd8:	f7ff fe46 	bl	8001968 <LL_EXTI_EnableIT_32_63>
          LL_EXTI_EnableEvent_32_63(EXTI_InitStruct->Line_32_63);
 8001cdc:	687b      	ldr	r3, [r7, #4]
 8001cde:	685b      	ldr	r3, [r3, #4]
 8001ce0:	4618      	mov	r0, r3
 8001ce2:	f7ff fe8d 	bl	8001a00 <LL_EXTI_EnableEvent_32_63>
          break;
 8001ce6:	e002      	b.n	8001cee <LL_EXTI_Init+0x14a>
        default:
          status = ERROR;
 8001ce8:	2301      	movs	r3, #1
 8001cea:	73fb      	strb	r3, [r7, #15]
          break;
 8001cec:	bf00      	nop
      }
      if (EXTI_InitStruct->Trigger != LL_EXTI_TRIGGER_NONE)
 8001cee:	687b      	ldr	r3, [r7, #4]
 8001cf0:	7a9b      	ldrb	r3, [r3, #10]
 8001cf2:	2b00      	cmp	r3, #0
 8001cf4:	d043      	beq.n	8001d7e <LL_EXTI_Init+0x1da>
      {
        switch (EXTI_InitStruct->Trigger)
 8001cf6:	687b      	ldr	r3, [r7, #4]
 8001cf8:	7a9b      	ldrb	r3, [r3, #10]
 8001cfa:	2b03      	cmp	r3, #3
 8001cfc:	d01c      	beq.n	8001d38 <LL_EXTI_Init+0x194>
 8001cfe:	2b03      	cmp	r3, #3
 8001d00:	dc25      	bgt.n	8001d4e <LL_EXTI_Init+0x1aa>
 8001d02:	2b01      	cmp	r3, #1
 8001d04:	d002      	beq.n	8001d0c <LL_EXTI_Init+0x168>
 8001d06:	2b02      	cmp	r3, #2
 8001d08:	d00b      	beq.n	8001d22 <LL_EXTI_Init+0x17e>
 8001d0a:	e020      	b.n	8001d4e <LL_EXTI_Init+0x1aa>
        {
          case LL_EXTI_TRIGGER_RISING:
            /* First Disable Falling Trigger on provided Lines */
            LL_EXTI_DisableFallingTrig_32_63(EXTI_InitStruct->Line_32_63);
 8001d0c:	687b      	ldr	r3, [r7, #4]
 8001d0e:	685b      	ldr	r3, [r3, #4]
 8001d10:	4618      	mov	r0, r3
 8001d12:	f7ff ff33 	bl	8001b7c <LL_EXTI_DisableFallingTrig_32_63>
            /* Then Enable IT on provided Lines */
            LL_EXTI_EnableRisingTrig_32_63(EXTI_InitStruct->Line_32_63);
 8001d16:	687b      	ldr	r3, [r7, #4]
 8001d18:	685b      	ldr	r3, [r3, #4]
 8001d1a:	4618      	mov	r0, r3
 8001d1c:	f7ff febc 	bl	8001a98 <LL_EXTI_EnableRisingTrig_32_63>
            break;
 8001d20:	e02e      	b.n	8001d80 <LL_EXTI_Init+0x1dc>
          case LL_EXTI_TRIGGER_FALLING:
            /* First Disable Rising Trigger on provided Lines */
            LL_EXTI_DisableRisingTrig_32_63(EXTI_InitStruct->Line_32_63);
 8001d22:	687b      	ldr	r3, [r7, #4]
 8001d24:	685b      	ldr	r3, [r3, #4]
 8001d26:	4618      	mov	r0, r3
 8001d28:	f7ff fedc 	bl	8001ae4 <LL_EXTI_DisableRisingTrig_32_63>
            /* Then Enable Falling Trigger on provided Lines */
            LL_EXTI_EnableFallingTrig_32_63(EXTI_InitStruct->Line_32_63);
 8001d2c:	687b      	ldr	r3, [r7, #4]
 8001d2e:	685b      	ldr	r3, [r3, #4]
 8001d30:	4618      	mov	r0, r3
 8001d32:	f7ff fefd 	bl	8001b30 <LL_EXTI_EnableFallingTrig_32_63>
            break;
 8001d36:	e023      	b.n	8001d80 <LL_EXTI_Init+0x1dc>
          case LL_EXTI_TRIGGER_RISING_FALLING:
            LL_EXTI_EnableRisingTrig_32_63(EXTI_InitStruct->Line_32_63);
 8001d38:	687b      	ldr	r3, [r7, #4]
 8001d3a:	685b      	ldr	r3, [r3, #4]
 8001d3c:	4618      	mov	r0, r3
 8001d3e:	f7ff feab 	bl	8001a98 <LL_EXTI_EnableRisingTrig_32_63>
            LL_EXTI_EnableFallingTrig_32_63(EXTI_InitStruct->Line_32_63);
 8001d42:	687b      	ldr	r3, [r7, #4]
 8001d44:	685b      	ldr	r3, [r3, #4]
 8001d46:	4618      	mov	r0, r3
 8001d48:	f7ff fef2 	bl	8001b30 <LL_EXTI_EnableFallingTrig_32_63>
            break;
 8001d4c:	e018      	b.n	8001d80 <LL_EXTI_Init+0x1dc>
          default:
            status = ERROR;
 8001d4e:	2301      	movs	r3, #1
 8001d50:	73fb      	strb	r3, [r7, #15]
            break;
 8001d52:	e015      	b.n	8001d80 <LL_EXTI_Init+0x1dc>
  }
  /* DISABLE LineCommand */
  else
  {
    /* De-configure EXTI Lines in range from 0 to 31 */
    LL_EXTI_DisableIT_0_31(EXTI_InitStruct->Line_0_31);
 8001d54:	687b      	ldr	r3, [r7, #4]
 8001d56:	681b      	ldr	r3, [r3, #0]
 8001d58:	4618      	mov	r0, r3
 8001d5a:	f7ff fe17 	bl	800198c <LL_EXTI_DisableIT_0_31>
    LL_EXTI_DisableEvent_0_31(EXTI_InitStruct->Line_0_31);
 8001d5e:	687b      	ldr	r3, [r7, #4]
 8001d60:	681b      	ldr	r3, [r3, #0]
 8001d62:	4618      	mov	r0, r3
 8001d64:	f7ff fe5e 	bl	8001a24 <LL_EXTI_DisableEvent_0_31>
#if defined(EXTI_32_63_SUPPORT)
    /* De-configure EXTI Lines in range from 32 to 63 */
    LL_EXTI_DisableIT_32_63(EXTI_InitStruct->Line_32_63);
 8001d68:	687b      	ldr	r3, [r7, #4]
 8001d6a:	685b      	ldr	r3, [r3, #4]
 8001d6c:	4618      	mov	r0, r3
 8001d6e:	f7ff fe21 	bl	80019b4 <LL_EXTI_DisableIT_32_63>
    LL_EXTI_DisableEvent_32_63(EXTI_InitStruct->Line_32_63);
 8001d72:	687b      	ldr	r3, [r7, #4]
 8001d74:	685b      	ldr	r3, [r3, #4]
 8001d76:	4618      	mov	r0, r3
 8001d78:	f7ff fe68 	bl	8001a4c <LL_EXTI_DisableEvent_32_63>
 8001d7c:	e000      	b.n	8001d80 <LL_EXTI_Init+0x1dc>
      }
 8001d7e:	bf00      	nop
#endif
  }
  return status;
 8001d80:	7bfb      	ldrb	r3, [r7, #15]
}
 8001d82:	4618      	mov	r0, r3
 8001d84:	3710      	adds	r7, #16
 8001d86:	46bd      	mov	sp, r7
 8001d88:	bd80      	pop	{r7, pc}

08001d8a <LL_GPIO_SetPinMode>:
{
 8001d8a:	b480      	push	{r7}
 8001d8c:	b089      	sub	sp, #36	; 0x24
 8001d8e:	af00      	add	r7, sp, #0
 8001d90:	60f8      	str	r0, [r7, #12]
 8001d92:	60b9      	str	r1, [r7, #8]
 8001d94:	607a      	str	r2, [r7, #4]
  MODIFY_REG(GPIOx->MODER, (GPIO_MODER_MODER0 << (POSITION_VAL(Pin) * 2U)), (Mode << (POSITION_VAL(Pin) * 2U)));
 8001d96:	68fb      	ldr	r3, [r7, #12]
 8001d98:	681a      	ldr	r2, [r3, #0]
 8001d9a:	68bb      	ldr	r3, [r7, #8]
 8001d9c:	617b      	str	r3, [r7, #20]
   __ASM volatile ("rbit %0, %1" : "=r" (result) : "r" (value) );
 8001d9e:	697b      	ldr	r3, [r7, #20]
 8001da0:	fa93 f3a3 	rbit	r3, r3
 8001da4:	613b      	str	r3, [r7, #16]
  return result;
 8001da6:	693b      	ldr	r3, [r7, #16]
 8001da8:	fab3 f383 	clz	r3, r3
 8001dac:	b2db      	uxtb	r3, r3
 8001dae:	005b      	lsls	r3, r3, #1
 8001db0:	2103      	movs	r1, #3
 8001db2:	fa01 f303 	lsl.w	r3, r1, r3
 8001db6:	43db      	mvns	r3, r3
 8001db8:	401a      	ands	r2, r3
 8001dba:	68bb      	ldr	r3, [r7, #8]
 8001dbc:	61fb      	str	r3, [r7, #28]
   __ASM volatile ("rbit %0, %1" : "=r" (result) : "r" (value) );
 8001dbe:	69fb      	ldr	r3, [r7, #28]
 8001dc0:	fa93 f3a3 	rbit	r3, r3
 8001dc4:	61bb      	str	r3, [r7, #24]
  return result;
 8001dc6:	69bb      	ldr	r3, [r7, #24]
 8001dc8:	fab3 f383 	clz	r3, r3
 8001dcc:	b2db      	uxtb	r3, r3
 8001dce:	005b      	lsls	r3, r3, #1
 8001dd0:	6879      	ldr	r1, [r7, #4]
 8001dd2:	fa01 f303 	lsl.w	r3, r1, r3
 8001dd6:	431a      	orrs	r2, r3
 8001dd8:	68fb      	ldr	r3, [r7, #12]
 8001dda:	601a      	str	r2, [r3, #0]
}
 8001ddc:	bf00      	nop
 8001dde:	3724      	adds	r7, #36	; 0x24
 8001de0:	46bd      	mov	sp, r7
 8001de2:	f85d 7b04 	ldr.w	r7, [sp], #4
 8001de6:	4770      	bx	lr

08001de8 <LL_GPIO_SetPinOutputType>:
{
 8001de8:	b480      	push	{r7}
 8001dea:	b085      	sub	sp, #20
 8001dec:	af00      	add	r7, sp, #0
 8001dee:	60f8      	str	r0, [r7, #12]
 8001df0:	60b9      	str	r1, [r7, #8]
 8001df2:	607a      	str	r2, [r7, #4]
  MODIFY_REG(GPIOx->OTYPER, PinMask, (PinMask * OutputType));
 8001df4:	68fb      	ldr	r3, [r7, #12]
 8001df6:	685a      	ldr	r2, [r3, #4]
 8001df8:	68bb      	ldr	r3, [r7, #8]
 8001dfa:	43db      	mvns	r3, r3
 8001dfc:	401a      	ands	r2, r3
 8001dfe:	68bb      	ldr	r3, [r7, #8]
 8001e00:	6879      	ldr	r1, [r7, #4]
 8001e02:	fb01 f303 	mul.w	r3, r1, r3
 8001e06:	431a      	orrs	r2, r3
 8001e08:	68fb      	ldr	r3, [r7, #12]
 8001e0a:	605a      	str	r2, [r3, #4]
}
 8001e0c:	bf00      	nop
 8001e0e:	3714      	adds	r7, #20
 8001e10:	46bd      	mov	sp, r7
 8001e12:	f85d 7b04 	ldr.w	r7, [sp], #4
 8001e16:	4770      	bx	lr

08001e18 <LL_GPIO_SetPinSpeed>:
{
 8001e18:	b480      	push	{r7}
 8001e1a:	b089      	sub	sp, #36	; 0x24
 8001e1c:	af00      	add	r7, sp, #0
 8001e1e:	60f8      	str	r0, [r7, #12]
 8001e20:	60b9      	str	r1, [r7, #8]
 8001e22:	607a      	str	r2, [r7, #4]
  MODIFY_REG(GPIOx->OSPEEDR, (GPIO_OSPEEDER_OSPEEDR0 << (POSITION_VAL(Pin) * 2U)),
 8001e24:	68fb      	ldr	r3, [r7, #12]
 8001e26:	689a      	ldr	r2, [r3, #8]
 8001e28:	68bb      	ldr	r3, [r7, #8]
 8001e2a:	617b      	str	r3, [r7, #20]
   __ASM volatile ("rbit %0, %1" : "=r" (result) : "r" (value) );
 8001e2c:	697b      	ldr	r3, [r7, #20]
 8001e2e:	fa93 f3a3 	rbit	r3, r3
 8001e32:	613b      	str	r3, [r7, #16]
  return result;
 8001e34:	693b      	ldr	r3, [r7, #16]
 8001e36:	fab3 f383 	clz	r3, r3
 8001e3a:	b2db      	uxtb	r3, r3
 8001e3c:	005b      	lsls	r3, r3, #1
 8001e3e:	2103      	movs	r1, #3
 8001e40:	fa01 f303 	lsl.w	r3, r1, r3
 8001e44:	43db      	mvns	r3, r3
 8001e46:	401a      	ands	r2, r3
 8001e48:	68bb      	ldr	r3, [r7, #8]
 8001e4a:	61fb      	str	r3, [r7, #28]
   __ASM volatile ("rbit %0, %1" : "=r" (result) : "r" (value) );
 8001e4c:	69fb      	ldr	r3, [r7, #28]
 8001e4e:	fa93 f3a3 	rbit	r3, r3
 8001e52:	61bb      	str	r3, [r7, #24]
  return result;
 8001e54:	69bb      	ldr	r3, [r7, #24]
 8001e56:	fab3 f383 	clz	r3, r3
 8001e5a:	b2db      	uxtb	r3, r3
 8001e5c:	005b      	lsls	r3, r3, #1
 8001e5e:	6879      	ldr	r1, [r7, #4]
 8001e60:	fa01 f303 	lsl.w	r3, r1, r3
 8001e64:	431a      	orrs	r2, r3
 8001e66:	68fb      	ldr	r3, [r7, #12]
 8001e68:	609a      	str	r2, [r3, #8]
}
 8001e6a:	bf00      	nop
 8001e6c:	3724      	adds	r7, #36	; 0x24
 8001e6e:	46bd      	mov	sp, r7
 8001e70:	f85d 7b04 	ldr.w	r7, [sp], #4
 8001e74:	4770      	bx	lr

08001e76 <LL_GPIO_SetPinPull>:
{
 8001e76:	b480      	push	{r7}
 8001e78:	b089      	sub	sp, #36	; 0x24
 8001e7a:	af00      	add	r7, sp, #0
 8001e7c:	60f8      	str	r0, [r7, #12]
 8001e7e:	60b9      	str	r1, [r7, #8]
 8001e80:	607a      	str	r2, [r7, #4]
  MODIFY_REG(GPIOx->PUPDR, (GPIO_PUPDR_PUPDR0 << (POSITION_VAL(Pin) * 2U)), (Pull << (POSITION_VAL(Pin) * 2U)));
 8001e82:	68fb      	ldr	r3, [r7, #12]
 8001e84:	68da      	ldr	r2, [r3, #12]
 8001e86:	68bb      	ldr	r3, [r7, #8]
 8001e88:	617b      	str	r3, [r7, #20]
   __ASM volatile ("rbit %0, %1" : "=r" (result) : "r" (value) );
 8001e8a:	697b      	ldr	r3, [r7, #20]
 8001e8c:	fa93 f3a3 	rbit	r3, r3
 8001e90:	613b      	str	r3, [r7, #16]
  return result;
 8001e92:	693b      	ldr	r3, [r7, #16]
 8001e94:	fab3 f383 	clz	r3, r3
 8001e98:	b2db      	uxtb	r3, r3
 8001e9a:	005b      	lsls	r3, r3, #1
 8001e9c:	2103      	movs	r1, #3
 8001e9e:	fa01 f303 	lsl.w	r3, r1, r3
 8001ea2:	43db      	mvns	r3, r3
 8001ea4:	401a      	ands	r2, r3
 8001ea6:	68bb      	ldr	r3, [r7, #8]
 8001ea8:	61fb      	str	r3, [r7, #28]
   __ASM volatile ("rbit %0, %1" : "=r" (result) : "r" (value) );
 8001eaa:	69fb      	ldr	r3, [r7, #28]
 8001eac:	fa93 f3a3 	rbit	r3, r3
 8001eb0:	61bb      	str	r3, [r7, #24]
  return result;
 8001eb2:	69bb      	ldr	r3, [r7, #24]
 8001eb4:	fab3 f383 	clz	r3, r3
 8001eb8:	b2db      	uxtb	r3, r3
 8001eba:	005b      	lsls	r3, r3, #1
 8001ebc:	6879      	ldr	r1, [r7, #4]
 8001ebe:	fa01 f303 	lsl.w	r3, r1, r3
 8001ec2:	431a      	orrs	r2, r3
 8001ec4:	68fb      	ldr	r3, [r7, #12]
 8001ec6:	60da      	str	r2, [r3, #12]
}
 8001ec8:	bf00      	nop
 8001eca:	3724      	adds	r7, #36	; 0x24
 8001ecc:	46bd      	mov	sp, r7
 8001ece:	f85d 7b04 	ldr.w	r7, [sp], #4
 8001ed2:	4770      	bx	lr

08001ed4 <LL_GPIO_SetAFPin_0_7>:
{
 8001ed4:	b480      	push	{r7}
 8001ed6:	b089      	sub	sp, #36	; 0x24
 8001ed8:	af00      	add	r7, sp, #0
 8001eda:	60f8      	str	r0, [r7, #12]
 8001edc:	60b9      	str	r1, [r7, #8]
 8001ede:	607a      	str	r2, [r7, #4]
  MODIFY_REG(GPIOx->AFR[0], (GPIO_AFRL_AFRL0 << (POSITION_VAL(Pin) * 4U)),
 8001ee0:	68fb      	ldr	r3, [r7, #12]
 8001ee2:	6a1a      	ldr	r2, [r3, #32]
 8001ee4:	68bb      	ldr	r3, [r7, #8]
 8001ee6:	617b      	str	r3, [r7, #20]
   __ASM volatile ("rbit %0, %1" : "=r" (result) : "r" (value) );
 8001ee8:	697b      	ldr	r3, [r7, #20]
 8001eea:	fa93 f3a3 	rbit	r3, r3
 8001eee:	613b      	str	r3, [r7, #16]
  return result;
 8001ef0:	693b      	ldr	r3, [r7, #16]
 8001ef2:	fab3 f383 	clz	r3, r3
 8001ef6:	b2db      	uxtb	r3, r3
 8001ef8:	009b      	lsls	r3, r3, #2
 8001efa:	210f      	movs	r1, #15
 8001efc:	fa01 f303 	lsl.w	r3, r1, r3
 8001f00:	43db      	mvns	r3, r3
 8001f02:	401a      	ands	r2, r3
 8001f04:	68bb      	ldr	r3, [r7, #8]
 8001f06:	61fb      	str	r3, [r7, #28]
   __ASM volatile ("rbit %0, %1" : "=r" (result) : "r" (value) );
 8001f08:	69fb      	ldr	r3, [r7, #28]
 8001f0a:	fa93 f3a3 	rbit	r3, r3
 8001f0e:	61bb      	str	r3, [r7, #24]
  return result;
 8001f10:	69bb      	ldr	r3, [r7, #24]
 8001f12:	fab3 f383 	clz	r3, r3
 8001f16:	b2db      	uxtb	r3, r3
 8001f18:	009b      	lsls	r3, r3, #2
 8001f1a:	6879      	ldr	r1, [r7, #4]
 8001f1c:	fa01 f303 	lsl.w	r3, r1, r3
 8001f20:	431a      	orrs	r2, r3
 8001f22:	68fb      	ldr	r3, [r7, #12]
 8001f24:	621a      	str	r2, [r3, #32]
}
 8001f26:	bf00      	nop
 8001f28:	3724      	adds	r7, #36	; 0x24
 8001f2a:	46bd      	mov	sp, r7
 8001f2c:	f85d 7b04 	ldr.w	r7, [sp], #4
 8001f30:	4770      	bx	lr

08001f32 <LL_GPIO_SetAFPin_8_15>:
{
 8001f32:	b480      	push	{r7}
 8001f34:	b089      	sub	sp, #36	; 0x24
 8001f36:	af00      	add	r7, sp, #0
 8001f38:	60f8      	str	r0, [r7, #12]
 8001f3a:	60b9      	str	r1, [r7, #8]
 8001f3c:	607a      	str	r2, [r7, #4]
  MODIFY_REG(GPIOx->AFR[1], (GPIO_AFRH_AFRH0 << (POSITION_VAL(Pin >> 8U) * 4U)),
 8001f3e:	68fb      	ldr	r3, [r7, #12]
 8001f40:	6a5a      	ldr	r2, [r3, #36]	; 0x24
 8001f42:	68bb      	ldr	r3, [r7, #8]
 8001f44:	0a1b      	lsrs	r3, r3, #8
 8001f46:	617b      	str	r3, [r7, #20]
   __ASM volatile ("rbit %0, %1" : "=r" (result) : "r" (value) );
 8001f48:	697b      	ldr	r3, [r7, #20]
 8001f4a:	fa93 f3a3 	rbit	r3, r3
 8001f4e:	613b      	str	r3, [r7, #16]
  return result;
 8001f50:	693b      	ldr	r3, [r7, #16]
 8001f52:	fab3 f383 	clz	r3, r3
 8001f56:	b2db      	uxtb	r3, r3
 8001f58:	009b      	lsls	r3, r3, #2
 8001f5a:	210f      	movs	r1, #15
 8001f5c:	fa01 f303 	lsl.w	r3, r1, r3
 8001f60:	43db      	mvns	r3, r3
 8001f62:	401a      	ands	r2, r3
 8001f64:	68bb      	ldr	r3, [r7, #8]
 8001f66:	0a1b      	lsrs	r3, r3, #8
 8001f68:	61fb      	str	r3, [r7, #28]
   __ASM volatile ("rbit %0, %1" : "=r" (result) : "r" (value) );
 8001f6a:	69fb      	ldr	r3, [r7, #28]
 8001f6c:	fa93 f3a3 	rbit	r3, r3
 8001f70:	61bb      	str	r3, [r7, #24]
  return result;
 8001f72:	69bb      	ldr	r3, [r7, #24]
 8001f74:	fab3 f383 	clz	r3, r3
 8001f78:	b2db      	uxtb	r3, r3
 8001f7a:	009b      	lsls	r3, r3, #2
 8001f7c:	6879      	ldr	r1, [r7, #4]
 8001f7e:	fa01 f303 	lsl.w	r3, r1, r3
 8001f82:	431a      	orrs	r2, r3
 8001f84:	68fb      	ldr	r3, [r7, #12]
 8001f86:	625a      	str	r2, [r3, #36]	; 0x24
}
 8001f88:	bf00      	nop
 8001f8a:	3724      	adds	r7, #36	; 0x24
 8001f8c:	46bd      	mov	sp, r7
 8001f8e:	f85d 7b04 	ldr.w	r7, [sp], #4
 8001f92:	4770      	bx	lr

08001f94 <LL_GPIO_Init>:
  * @retval An ErrorStatus enumeration value:
  *          - SUCCESS: GPIO registers are initialized according to GPIO_InitStruct content
  *          - ERROR:   Not applicable
  */
ErrorStatus LL_GPIO_Init(GPIO_TypeDef *GPIOx, LL_GPIO_InitTypeDef *GPIO_InitStruct)
{
 8001f94:	b580      	push	{r7, lr}
 8001f96:	b088      	sub	sp, #32
 8001f98:	af00      	add	r7, sp, #0
 8001f9a:	6078      	str	r0, [r7, #4]
 8001f9c:	6039      	str	r1, [r7, #0]
  assert_param(IS_LL_GPIO_MODE(GPIO_InitStruct->Mode));
  assert_param(IS_LL_GPIO_PULL(GPIO_InitStruct->Pull));

  /* ------------------------- Configure the port pins ---------------- */
  /* Initialize  pinpos on first pin set */
  pinpos = POSITION_VAL(GPIO_InitStruct->Pin);
 8001f9e:	683b      	ldr	r3, [r7, #0]
 8001fa0:	681b      	ldr	r3, [r3, #0]
 8001fa2:	617b      	str	r3, [r7, #20]
   __ASM volatile ("rbit %0, %1" : "=r" (result) : "r" (value) );
 8001fa4:	697b      	ldr	r3, [r7, #20]
 8001fa6:	fa93 f3a3 	rbit	r3, r3
 8001faa:	613b      	str	r3, [r7, #16]
  return result;
 8001fac:	693b      	ldr	r3, [r7, #16]
 8001fae:	fab3 f383 	clz	r3, r3
 8001fb2:	b2db      	uxtb	r3, r3
 8001fb4:	61fb      	str	r3, [r7, #28]

  /* Configure the port pins */
  while (((GPIO_InitStruct->Pin) >> pinpos) != 0x00u)
 8001fb6:	e051      	b.n	800205c <LL_GPIO_Init+0xc8>
  {
    /* Get current io position */
    currentpin = (GPIO_InitStruct->Pin) & (0x00000001uL << pinpos);
 8001fb8:	683b      	ldr	r3, [r7, #0]
 8001fba:	681a      	ldr	r2, [r3, #0]
 8001fbc:	2101      	movs	r1, #1
 8001fbe:	69fb      	ldr	r3, [r7, #28]
 8001fc0:	fa01 f303 	lsl.w	r3, r1, r3
 8001fc4:	4013      	ands	r3, r2
 8001fc6:	61bb      	str	r3, [r7, #24]

    if (currentpin != 0x00u)
 8001fc8:	69bb      	ldr	r3, [r7, #24]
 8001fca:	2b00      	cmp	r3, #0
 8001fcc:	d043      	beq.n	8002056 <LL_GPIO_Init+0xc2>
    {
      if ((GPIO_InitStruct->Mode == LL_GPIO_MODE_OUTPUT) || (GPIO_InitStruct->Mode == LL_GPIO_MODE_ALTERNATE))
 8001fce:	683b      	ldr	r3, [r7, #0]
 8001fd0:	685b      	ldr	r3, [r3, #4]
 8001fd2:	2b01      	cmp	r3, #1
 8001fd4:	d003      	beq.n	8001fde <LL_GPIO_Init+0x4a>
 8001fd6:	683b      	ldr	r3, [r7, #0]
 8001fd8:	685b      	ldr	r3, [r3, #4]
 8001fda:	2b02      	cmp	r3, #2
 8001fdc:	d10e      	bne.n	8001ffc <LL_GPIO_Init+0x68>
      {
        /* Check Speed mode parameters */
        assert_param(IS_LL_GPIO_SPEED(GPIO_InitStruct->Speed));

        /* Speed mode configuration */
        LL_GPIO_SetPinSpeed(GPIOx, currentpin, GPIO_InitStruct->Speed);
 8001fde:	683b      	ldr	r3, [r7, #0]
 8001fe0:	689b      	ldr	r3, [r3, #8]
 8001fe2:	461a      	mov	r2, r3
 8001fe4:	69b9      	ldr	r1, [r7, #24]
 8001fe6:	6878      	ldr	r0, [r7, #4]
 8001fe8:	f7ff ff16 	bl	8001e18 <LL_GPIO_SetPinSpeed>

        /* Check Output mode parameters */
        assert_param(IS_LL_GPIO_OUTPUT_TYPE(GPIO_InitStruct->OutputType));

        /* Output mode configuration*/
        LL_GPIO_SetPinOutputType(GPIOx, GPIO_InitStruct->Pin, GPIO_InitStruct->OutputType);
 8001fec:	683b      	ldr	r3, [r7, #0]
 8001fee:	6819      	ldr	r1, [r3, #0]
 8001ff0:	683b      	ldr	r3, [r7, #0]
 8001ff2:	68db      	ldr	r3, [r3, #12]
 8001ff4:	461a      	mov	r2, r3
 8001ff6:	6878      	ldr	r0, [r7, #4]
 8001ff8:	f7ff fef6 	bl	8001de8 <LL_GPIO_SetPinOutputType>
      }

      /* Pull-up Pull down resistor configuration*/
      LL_GPIO_SetPinPull(GPIOx, currentpin, GPIO_InitStruct->Pull);
 8001ffc:	683b      	ldr	r3, [r7, #0]
 8001ffe:	691b      	ldr	r3, [r3, #16]
 8002000:	461a      	mov	r2, r3
 8002002:	69b9      	ldr	r1, [r7, #24]
 8002004:	6878      	ldr	r0, [r7, #4]
 8002006:	f7ff ff36 	bl	8001e76 <LL_GPIO_SetPinPull>

      if (GPIO_InitStruct->Mode == LL_GPIO_MODE_ALTERNATE)
 800200a:	683b      	ldr	r3, [r7, #0]
 800200c:	685b      	ldr	r3, [r3, #4]
 800200e:	2b02      	cmp	r3, #2
 8002010:	d11a      	bne.n	8002048 <LL_GPIO_Init+0xb4>
 8002012:	69bb      	ldr	r3, [r7, #24]
 8002014:	60fb      	str	r3, [r7, #12]
   __ASM volatile ("rbit %0, %1" : "=r" (result) : "r" (value) );
 8002016:	68fb      	ldr	r3, [r7, #12]
 8002018:	fa93 f3a3 	rbit	r3, r3
 800201c:	60bb      	str	r3, [r7, #8]
  return result;
 800201e:	68bb      	ldr	r3, [r7, #8]
      {
        /* Check Alternate parameter */
        assert_param(IS_LL_GPIO_ALTERNATE(GPIO_InitStruct->Alternate));

        /* Speed mode configuration */
        if (POSITION_VAL(currentpin) < 0x00000008U)
 8002020:	fab3 f383 	clz	r3, r3
 8002024:	b2db      	uxtb	r3, r3
 8002026:	2b07      	cmp	r3, #7
 8002028:	d807      	bhi.n	800203a <LL_GPIO_Init+0xa6>
        {
          LL_GPIO_SetAFPin_0_7(GPIOx, currentpin, GPIO_InitStruct->Alternate);
 800202a:	683b      	ldr	r3, [r7, #0]
 800202c:	695b      	ldr	r3, [r3, #20]
 800202e:	461a      	mov	r2, r3
 8002030:	69b9      	ldr	r1, [r7, #24]
 8002032:	6878      	ldr	r0, [r7, #4]
 8002034:	f7ff ff4e 	bl	8001ed4 <LL_GPIO_SetAFPin_0_7>
 8002038:	e006      	b.n	8002048 <LL_GPIO_Init+0xb4>
        }
        else
        {
          LL_GPIO_SetAFPin_8_15(GPIOx, currentpin, GPIO_InitStruct->Alternate);
 800203a:	683b      	ldr	r3, [r7, #0]
 800203c:	695b      	ldr	r3, [r3, #20]
 800203e:	461a      	mov	r2, r3
 8002040:	69b9      	ldr	r1, [r7, #24]
 8002042:	6878      	ldr	r0, [r7, #4]
 8002044:	f7ff ff75 	bl	8001f32 <LL_GPIO_SetAFPin_8_15>
        }
      }

      /* Pin Mode configuration */
      LL_GPIO_SetPinMode(GPIOx, currentpin, GPIO_InitStruct->Mode);
 8002048:	683b      	ldr	r3, [r7, #0]
 800204a:	685b      	ldr	r3, [r3, #4]
 800204c:	461a      	mov	r2, r3
 800204e:	69b9      	ldr	r1, [r7, #24]
 8002050:	6878      	ldr	r0, [r7, #4]
 8002052:	f7ff fe9a 	bl	8001d8a <LL_GPIO_SetPinMode>
    }
    pinpos++;
 8002056:	69fb      	ldr	r3, [r7, #28]
 8002058:	3301      	adds	r3, #1
 800205a:	61fb      	str	r3, [r7, #28]
  while (((GPIO_InitStruct->Pin) >> pinpos) != 0x00u)
 800205c:	683b      	ldr	r3, [r7, #0]
 800205e:	681a      	ldr	r2, [r3, #0]
 8002060:	69fb      	ldr	r3, [r7, #28]
 8002062:	fa22 f303 	lsr.w	r3, r2, r3
 8002066:	2b00      	cmp	r3, #0
 8002068:	d1a6      	bne.n	8001fb8 <LL_GPIO_Init+0x24>
  }

  return (SUCCESS);
 800206a:	2300      	movs	r3, #0
}
 800206c:	4618      	mov	r0, r3
 800206e:	3720      	adds	r7, #32
 8002070:	46bd      	mov	sp, r7
 8002072:	bd80      	pop	{r7, pc}

08002074 <LL_I2C_Enable>:
{
 8002074:	b480      	push	{r7}
 8002076:	b083      	sub	sp, #12
 8002078:	af00      	add	r7, sp, #0
 800207a:	6078      	str	r0, [r7, #4]
  SET_BIT(I2Cx->CR1, I2C_CR1_PE);
 800207c:	687b      	ldr	r3, [r7, #4]
 800207e:	681b      	ldr	r3, [r3, #0]
 8002080:	f043 0201 	orr.w	r2, r3, #1
 8002084:	687b      	ldr	r3, [r7, #4]
 8002086:	601a      	str	r2, [r3, #0]
}
 8002088:	bf00      	nop
 800208a:	370c      	adds	r7, #12
 800208c:	46bd      	mov	sp, r7
 800208e:	f85d 7b04 	ldr.w	r7, [sp], #4
 8002092:	4770      	bx	lr

08002094 <LL_I2C_Disable>:
{
 8002094:	b480      	push	{r7}
 8002096:	b083      	sub	sp, #12
 8002098:	af00      	add	r7, sp, #0
 800209a:	6078      	str	r0, [r7, #4]
  CLEAR_BIT(I2Cx->CR1, I2C_CR1_PE);
 800209c:	687b      	ldr	r3, [r7, #4]
 800209e:	681b      	ldr	r3, [r3, #0]
 80020a0:	f023 0201 	bic.w	r2, r3, #1
 80020a4:	687b      	ldr	r3, [r7, #4]
 80020a6:	601a      	str	r2, [r3, #0]
}
 80020a8:	bf00      	nop
 80020aa:	370c      	adds	r7, #12
 80020ac:	46bd      	mov	sp, r7
 80020ae:	f85d 7b04 	ldr.w	r7, [sp], #4
 80020b2:	4770      	bx	lr

080020b4 <LL_I2C_ConfigFilters>:
{
 80020b4:	b480      	push	{r7}
 80020b6:	b085      	sub	sp, #20
 80020b8:	af00      	add	r7, sp, #0
 80020ba:	60f8      	str	r0, [r7, #12]
 80020bc:	60b9      	str	r1, [r7, #8]
 80020be:	607a      	str	r2, [r7, #4]
  MODIFY_REG(I2Cx->CR1, I2C_CR1_ANFOFF | I2C_CR1_DNF, AnalogFilter | (DigitalFilter << I2C_CR1_DNF_Pos));
 80020c0:	68fb      	ldr	r3, [r7, #12]
 80020c2:	681b      	ldr	r3, [r3, #0]
 80020c4:	f423 52f8 	bic.w	r2, r3, #7936	; 0x1f00
 80020c8:	687b      	ldr	r3, [r7, #4]
 80020ca:	0219      	lsls	r1, r3, #8
 80020cc:	68bb      	ldr	r3, [r7, #8]
 80020ce:	430b      	orrs	r3, r1
 80020d0:	431a      	orrs	r2, r3
 80020d2:	68fb      	ldr	r3, [r7, #12]
 80020d4:	601a      	str	r2, [r3, #0]
}
 80020d6:	bf00      	nop
 80020d8:	3714      	adds	r7, #20
 80020da:	46bd      	mov	sp, r7
 80020dc:	f85d 7b04 	ldr.w	r7, [sp], #4
 80020e0:	4770      	bx	lr

080020e2 <LL_I2C_SetOwnAddress1>:
{
 80020e2:	b480      	push	{r7}
 80020e4:	b085      	sub	sp, #20
 80020e6:	af00      	add	r7, sp, #0
 80020e8:	60f8      	str	r0, [r7, #12]
 80020ea:	60b9      	str	r1, [r7, #8]
 80020ec:	607a      	str	r2, [r7, #4]
  MODIFY_REG(I2Cx->OAR1, I2C_OAR1_OA1 | I2C_OAR1_OA1MODE, OwnAddress1 | OwnAddrSize);
 80020ee:	68fb      	ldr	r3, [r7, #12]
 80020f0:	689b      	ldr	r3, [r3, #8]
 80020f2:	f423 63ff 	bic.w	r3, r3, #2040	; 0x7f8
 80020f6:	f023 0307 	bic.w	r3, r3, #7
 80020fa:	68b9      	ldr	r1, [r7, #8]
 80020fc:	687a      	ldr	r2, [r7, #4]
 80020fe:	430a      	orrs	r2, r1
 8002100:	431a      	orrs	r2, r3
 8002102:	68fb      	ldr	r3, [r7, #12]
 8002104:	609a      	str	r2, [r3, #8]
}
 8002106:	bf00      	nop
 8002108:	3714      	adds	r7, #20
 800210a:	46bd      	mov	sp, r7
 800210c:	f85d 7b04 	ldr.w	r7, [sp], #4
 8002110:	4770      	bx	lr

08002112 <LL_I2C_EnableOwnAddress1>:
{
 8002112:	b480      	push	{r7}
 8002114:	b083      	sub	sp, #12
 8002116:	af00      	add	r7, sp, #0
 8002118:	6078      	str	r0, [r7, #4]
  SET_BIT(I2Cx->OAR1, I2C_OAR1_OA1EN);
 800211a:	687b      	ldr	r3, [r7, #4]
 800211c:	689b      	ldr	r3, [r3, #8]
 800211e:	f443 4200 	orr.w	r2, r3, #32768	; 0x8000
 8002122:	687b      	ldr	r3, [r7, #4]
 8002124:	609a      	str	r2, [r3, #8]
}
 8002126:	bf00      	nop
 8002128:	370c      	adds	r7, #12
 800212a:	46bd      	mov	sp, r7
 800212c:	f85d 7b04 	ldr.w	r7, [sp], #4
 8002130:	4770      	bx	lr

08002132 <LL_I2C_DisableOwnAddress1>:
{
 8002132:	b480      	push	{r7}
 8002134:	b083      	sub	sp, #12
 8002136:	af00      	add	r7, sp, #0
 8002138:	6078      	str	r0, [r7, #4]
  CLEAR_BIT(I2Cx->OAR1, I2C_OAR1_OA1EN);
 800213a:	687b      	ldr	r3, [r7, #4]
 800213c:	689b      	ldr	r3, [r3, #8]
 800213e:	f423 4200 	bic.w	r2, r3, #32768	; 0x8000
 8002142:	687b      	ldr	r3, [r7, #4]
 8002144:	609a      	str	r2, [r3, #8]
}
 8002146:	bf00      	nop
 8002148:	370c      	adds	r7, #12
 800214a:	46bd      	mov	sp, r7
 800214c:	f85d 7b04 	ldr.w	r7, [sp], #4
 8002150:	4770      	bx	lr

08002152 <LL_I2C_SetTiming>:
{
 8002152:	b480      	push	{r7}
 8002154:	b083      	sub	sp, #12
 8002156:	af00      	add	r7, sp, #0
 8002158:	6078      	str	r0, [r7, #4]
 800215a:	6039      	str	r1, [r7, #0]
  WRITE_REG(I2Cx->TIMINGR, Timing);
 800215c:	687b      	ldr	r3, [r7, #4]
 800215e:	683a      	ldr	r2, [r7, #0]
 8002160:	611a      	str	r2, [r3, #16]
}
 8002162:	bf00      	nop
 8002164:	370c      	adds	r7, #12
 8002166:	46bd      	mov	sp, r7
 8002168:	f85d 7b04 	ldr.w	r7, [sp], #4
 800216c:	4770      	bx	lr

0800216e <LL_I2C_SetMode>:
{
 800216e:	b480      	push	{r7}
 8002170:	b083      	sub	sp, #12
 8002172:	af00      	add	r7, sp, #0
 8002174:	6078      	str	r0, [r7, #4]
 8002176:	6039      	str	r1, [r7, #0]
  MODIFY_REG(I2Cx->CR1, I2C_CR1_SMBHEN | I2C_CR1_SMBDEN, PeripheralMode);
 8002178:	687b      	ldr	r3, [r7, #4]
 800217a:	681b      	ldr	r3, [r3, #0]
 800217c:	f423 1240 	bic.w	r2, r3, #3145728	; 0x300000
 8002180:	683b      	ldr	r3, [r7, #0]
 8002182:	431a      	orrs	r2, r3
 8002184:	687b      	ldr	r3, [r7, #4]
 8002186:	601a      	str	r2, [r3, #0]
}
 8002188:	bf00      	nop
 800218a:	370c      	adds	r7, #12
 800218c:	46bd      	mov	sp, r7
 800218e:	f85d 7b04 	ldr.w	r7, [sp], #4
 8002192:	4770      	bx	lr

08002194 <LL_I2C_AcknowledgeNextData>:
{
 8002194:	b480      	push	{r7}
 8002196:	b083      	sub	sp, #12
 8002198:	af00      	add	r7, sp, #0
 800219a:	6078      	str	r0, [r7, #4]
 800219c:	6039      	str	r1, [r7, #0]
  MODIFY_REG(I2Cx->CR2, I2C_CR2_NACK, TypeAcknowledge);
 800219e:	687b      	ldr	r3, [r7, #4]
 80021a0:	685b      	ldr	r3, [r3, #4]
 80021a2:	f423 4200 	bic.w	r2, r3, #32768	; 0x8000
 80021a6:	683b      	ldr	r3, [r7, #0]
 80021a8:	431a      	orrs	r2, r3
 80021aa:	687b      	ldr	r3, [r7, #4]
 80021ac:	605a      	str	r2, [r3, #4]
}
 80021ae:	bf00      	nop
 80021b0:	370c      	adds	r7, #12
 80021b2:	46bd      	mov	sp, r7
 80021b4:	f85d 7b04 	ldr.w	r7, [sp], #4
 80021b8:	4770      	bx	lr

080021ba <LL_I2C_Init>:
  * @retval An ErrorStatus enumeration value:
  *          - SUCCESS: I2C registers are initialized
  *          - ERROR: Not applicable
  */
ErrorStatus LL_I2C_Init(I2C_TypeDef *I2Cx, LL_I2C_InitTypeDef *I2C_InitStruct)
{
 80021ba:	b580      	push	{r7, lr}
 80021bc:	b082      	sub	sp, #8
 80021be:	af00      	add	r7, sp, #0
 80021c0:	6078      	str	r0, [r7, #4]
 80021c2:	6039      	str	r1, [r7, #0]
  assert_param(IS_LL_I2C_OWN_ADDRESS1(I2C_InitStruct->OwnAddress1));
  assert_param(IS_LL_I2C_TYPE_ACKNOWLEDGE(I2C_InitStruct->TypeAcknowledge));
  assert_param(IS_LL_I2C_OWN_ADDRSIZE(I2C_InitStruct->OwnAddrSize));

  /* Disable the selected I2Cx Peripheral */
  LL_I2C_Disable(I2Cx);
 80021c4:	6878      	ldr	r0, [r7, #4]
 80021c6:	f7ff ff65 	bl	8002094 <LL_I2C_Disable>
  /*---------------------------- I2Cx CR1 Configuration ------------------------
   * Configure the analog and digital noise filters with parameters :
   * - AnalogFilter: I2C_CR1_ANFOFF bit
   * - DigitalFilter: I2C_CR1_DNF[3:0] bits
   */
  LL_I2C_ConfigFilters(I2Cx, I2C_InitStruct->AnalogFilter, I2C_InitStruct->DigitalFilter);
 80021ca:	683b      	ldr	r3, [r7, #0]
 80021cc:	6899      	ldr	r1, [r3, #8]
 80021ce:	683b      	ldr	r3, [r7, #0]
 80021d0:	68db      	ldr	r3, [r3, #12]
 80021d2:	461a      	mov	r2, r3
 80021d4:	6878      	ldr	r0, [r7, #4]
 80021d6:	f7ff ff6d 	bl	80020b4 <LL_I2C_ConfigFilters>
  /*---------------------------- I2Cx TIMINGR Configuration --------------------
   * Configure the SDA setup, hold time and the SCL high, low period with parameter :
   * - Timing: I2C_TIMINGR_PRESC[3:0], I2C_TIMINGR_SCLDEL[3:0], I2C_TIMINGR_SDADEL[3:0],
   *           I2C_TIMINGR_SCLH[7:0] and I2C_TIMINGR_SCLL[7:0] bits
   */
  LL_I2C_SetTiming(I2Cx, I2C_InitStruct->Timing);
 80021da:	683b      	ldr	r3, [r7, #0]
 80021dc:	685b      	ldr	r3, [r3, #4]
 80021de:	4619      	mov	r1, r3
 80021e0:	6878      	ldr	r0, [r7, #4]
 80021e2:	f7ff ffb6 	bl	8002152 <LL_I2C_SetTiming>

  /* Enable the selected I2Cx Peripheral */
  LL_I2C_Enable(I2Cx);
 80021e6:	6878      	ldr	r0, [r7, #4]
 80021e8:	f7ff ff44 	bl	8002074 <LL_I2C_Enable>
  /*---------------------------- I2Cx OAR1 Configuration -----------------------
   * Disable, Configure and Enable I2Cx device own address 1 with parameters :
   * - OwnAddress1:  I2C_OAR1_OA1[9:0] bits
   * - OwnAddrSize:  I2C_OAR1_OA1MODE bit
   */
  LL_I2C_DisableOwnAddress1(I2Cx);
 80021ec:	6878      	ldr	r0, [r7, #4]
 80021ee:	f7ff ffa0 	bl	8002132 <LL_I2C_DisableOwnAddress1>
  LL_I2C_SetOwnAddress1(I2Cx, I2C_InitStruct->OwnAddress1, I2C_InitStruct->OwnAddrSize);
 80021f2:	683b      	ldr	r3, [r7, #0]
 80021f4:	6919      	ldr	r1, [r3, #16]
 80021f6:	683b      	ldr	r3, [r7, #0]
 80021f8:	699b      	ldr	r3, [r3, #24]
 80021fa:	461a      	mov	r2, r3
 80021fc:	6878      	ldr	r0, [r7, #4]
 80021fe:	f7ff ff70 	bl	80020e2 <LL_I2C_SetOwnAddress1>

  /* OwnAdress1 == 0 is reserved for General Call address */
  if (I2C_InitStruct->OwnAddress1 != 0U)
 8002202:	683b      	ldr	r3, [r7, #0]
 8002204:	691b      	ldr	r3, [r3, #16]
 8002206:	2b00      	cmp	r3, #0
 8002208:	d002      	beq.n	8002210 <LL_I2C_Init+0x56>
  {
    LL_I2C_EnableOwnAddress1(I2Cx);
 800220a:	6878      	ldr	r0, [r7, #4]
 800220c:	f7ff ff81 	bl	8002112 <LL_I2C_EnableOwnAddress1>

  /*---------------------------- I2Cx MODE Configuration -----------------------
  * Configure I2Cx peripheral mode with parameter :
   * - PeripheralMode: I2C_CR1_SMBDEN and I2C_CR1_SMBHEN bits
   */
  LL_I2C_SetMode(I2Cx, I2C_InitStruct->PeripheralMode);
 8002210:	683b      	ldr	r3, [r7, #0]
 8002212:	681b      	ldr	r3, [r3, #0]
 8002214:	4619      	mov	r1, r3
 8002216:	6878      	ldr	r0, [r7, #4]
 8002218:	f7ff ffa9 	bl	800216e <LL_I2C_SetMode>
  /*---------------------------- I2Cx CR2 Configuration ------------------------
   * Configure the ACKnowledge or Non ACKnowledge condition
   * after the address receive match code or next received byte with parameter :
   * - TypeAcknowledge: I2C_CR2_NACK bit
   */
  LL_I2C_AcknowledgeNextData(I2Cx, I2C_InitStruct->TypeAcknowledge);
 800221c:	683b      	ldr	r3, [r7, #0]
 800221e:	695b      	ldr	r3, [r3, #20]
 8002220:	4619      	mov	r1, r3
 8002222:	6878      	ldr	r0, [r7, #4]
 8002224:	f7ff ffb6 	bl	8002194 <LL_I2C_AcknowledgeNextData>

  return SUCCESS;
 8002228:	2300      	movs	r3, #0
}
 800222a:	4618      	mov	r0, r3
 800222c:	3708      	adds	r7, #8
 800222e:	46bd      	mov	sp, r7
 8002230:	bd80      	pop	{r7, pc}

08002232 <LL_TIM_SetPrescaler>:
{
 8002232:	b480      	push	{r7}
 8002234:	b083      	sub	sp, #12
 8002236:	af00      	add	r7, sp, #0
 8002238:	6078      	str	r0, [r7, #4]
 800223a:	6039      	str	r1, [r7, #0]
  WRITE_REG(TIMx->PSC, Prescaler);
 800223c:	687b      	ldr	r3, [r7, #4]
 800223e:	683a      	ldr	r2, [r7, #0]
 8002240:	629a      	str	r2, [r3, #40]	; 0x28
}
 8002242:	bf00      	nop
 8002244:	370c      	adds	r7, #12
 8002246:	46bd      	mov	sp, r7
 8002248:	f85d 7b04 	ldr.w	r7, [sp], #4
 800224c:	4770      	bx	lr

0800224e <LL_TIM_SetAutoReload>:
{
 800224e:	b480      	push	{r7}
 8002250:	b083      	sub	sp, #12
 8002252:	af00      	add	r7, sp, #0
 8002254:	6078      	str	r0, [r7, #4]
 8002256:	6039      	str	r1, [r7, #0]
  WRITE_REG(TIMx->ARR, AutoReload);
 8002258:	687b      	ldr	r3, [r7, #4]
 800225a:	683a      	ldr	r2, [r7, #0]
 800225c:	62da      	str	r2, [r3, #44]	; 0x2c
}
 800225e:	bf00      	nop
 8002260:	370c      	adds	r7, #12
 8002262:	46bd      	mov	sp, r7
 8002264:	f85d 7b04 	ldr.w	r7, [sp], #4
 8002268:	4770      	bx	lr

0800226a <LL_TIM_SetRepetitionCounter>:
{
 800226a:	b480      	push	{r7}
 800226c:	b083      	sub	sp, #12
 800226e:	af00      	add	r7, sp, #0
 8002270:	6078      	str	r0, [r7, #4]
 8002272:	6039      	str	r1, [r7, #0]
  WRITE_REG(TIMx->RCR, RepetitionCounter);
 8002274:	687b      	ldr	r3, [r7, #4]
 8002276:	683a      	ldr	r2, [r7, #0]
 8002278:	631a      	str	r2, [r3, #48]	; 0x30
}
 800227a:	bf00      	nop
 800227c:	370c      	adds	r7, #12
 800227e:	46bd      	mov	sp, r7
 8002280:	f85d 7b04 	ldr.w	r7, [sp], #4
 8002284:	4770      	bx	lr

08002286 <LL_TIM_OC_SetCompareCH1>:
{
 8002286:	b480      	push	{r7}
 8002288:	b083      	sub	sp, #12
 800228a:	af00      	add	r7, sp, #0
 800228c:	6078      	str	r0, [r7, #4]
 800228e:	6039      	str	r1, [r7, #0]
  WRITE_REG(TIMx->CCR1, CompareValue);
 8002290:	687b      	ldr	r3, [r7, #4]
 8002292:	683a      	ldr	r2, [r7, #0]
 8002294:	635a      	str	r2, [r3, #52]	; 0x34
}
 8002296:	bf00      	nop
 8002298:	370c      	adds	r7, #12
 800229a:	46bd      	mov	sp, r7
 800229c:	f85d 7b04 	ldr.w	r7, [sp], #4
 80022a0:	4770      	bx	lr

080022a2 <LL_TIM_OC_SetCompareCH2>:
{
 80022a2:	b480      	push	{r7}
 80022a4:	b083      	sub	sp, #12
 80022a6:	af00      	add	r7, sp, #0
 80022a8:	6078      	str	r0, [r7, #4]
 80022aa:	6039      	str	r1, [r7, #0]
  WRITE_REG(TIMx->CCR2, CompareValue);
 80022ac:	687b      	ldr	r3, [r7, #4]
 80022ae:	683a      	ldr	r2, [r7, #0]
 80022b0:	639a      	str	r2, [r3, #56]	; 0x38
}
 80022b2:	bf00      	nop
 80022b4:	370c      	adds	r7, #12
 80022b6:	46bd      	mov	sp, r7
 80022b8:	f85d 7b04 	ldr.w	r7, [sp], #4
 80022bc:	4770      	bx	lr

080022be <LL_TIM_OC_SetCompareCH3>:
{
 80022be:	b480      	push	{r7}
 80022c0:	b083      	sub	sp, #12
 80022c2:	af00      	add	r7, sp, #0
 80022c4:	6078      	str	r0, [r7, #4]
 80022c6:	6039      	str	r1, [r7, #0]
  WRITE_REG(TIMx->CCR3, CompareValue);
 80022c8:	687b      	ldr	r3, [r7, #4]
 80022ca:	683a      	ldr	r2, [r7, #0]
 80022cc:	63da      	str	r2, [r3, #60]	; 0x3c
}
 80022ce:	bf00      	nop
 80022d0:	370c      	adds	r7, #12
 80022d2:	46bd      	mov	sp, r7
 80022d4:	f85d 7b04 	ldr.w	r7, [sp], #4
 80022d8:	4770      	bx	lr

080022da <LL_TIM_OC_SetCompareCH4>:
{
 80022da:	b480      	push	{r7}
 80022dc:	b083      	sub	sp, #12
 80022de:	af00      	add	r7, sp, #0
 80022e0:	6078      	str	r0, [r7, #4]
 80022e2:	6039      	str	r1, [r7, #0]
  WRITE_REG(TIMx->CCR4, CompareValue);
 80022e4:	687b      	ldr	r3, [r7, #4]
 80022e6:	683a      	ldr	r2, [r7, #0]
 80022e8:	641a      	str	r2, [r3, #64]	; 0x40
}
 80022ea:	bf00      	nop
 80022ec:	370c      	adds	r7, #12
 80022ee:	46bd      	mov	sp, r7
 80022f0:	f85d 7b04 	ldr.w	r7, [sp], #4
 80022f4:	4770      	bx	lr

080022f6 <LL_TIM_OC_SetCompareCH5>:
{
 80022f6:	b480      	push	{r7}
 80022f8:	b083      	sub	sp, #12
 80022fa:	af00      	add	r7, sp, #0
 80022fc:	6078      	str	r0, [r7, #4]
 80022fe:	6039      	str	r1, [r7, #0]
  MODIFY_REG(TIMx->CCR5, TIM_CCR5_CCR5, CompareValue);
 8002300:	687b      	ldr	r3, [r7, #4]
 8002302:	6d9b      	ldr	r3, [r3, #88]	; 0x58
 8002304:	687b      	ldr	r3, [r7, #4]
 8002306:	683a      	ldr	r2, [r7, #0]
 8002308:	659a      	str	r2, [r3, #88]	; 0x58
}
 800230a:	bf00      	nop
 800230c:	370c      	adds	r7, #12
 800230e:	46bd      	mov	sp, r7
 8002310:	f85d 7b04 	ldr.w	r7, [sp], #4
 8002314:	4770      	bx	lr

08002316 <LL_TIM_OC_SetCompareCH6>:
{
 8002316:	b480      	push	{r7}
 8002318:	b083      	sub	sp, #12
 800231a:	af00      	add	r7, sp, #0
 800231c:	6078      	str	r0, [r7, #4]
 800231e:	6039      	str	r1, [r7, #0]
  WRITE_REG(TIMx->CCR6, CompareValue);
 8002320:	687b      	ldr	r3, [r7, #4]
 8002322:	683a      	ldr	r2, [r7, #0]
 8002324:	65da      	str	r2, [r3, #92]	; 0x5c
}
 8002326:	bf00      	nop
 8002328:	370c      	adds	r7, #12
 800232a:	46bd      	mov	sp, r7
 800232c:	f85d 7b04 	ldr.w	r7, [sp], #4
 8002330:	4770      	bx	lr

08002332 <LL_TIM_GenerateEvent_UPDATE>:
  * @rmtoll EGR          UG            LL_TIM_GenerateEvent_UPDATE
  * @param  TIMx Timer instance
  * @retval None
  */
__STATIC_INLINE void LL_TIM_GenerateEvent_UPDATE(TIM_TypeDef *TIMx)
{
 8002332:	b480      	push	{r7}
 8002334:	b083      	sub	sp, #12
 8002336:	af00      	add	r7, sp, #0
 8002338:	6078      	str	r0, [r7, #4]
  SET_BIT(TIMx->EGR, TIM_EGR_UG);
 800233a:	687b      	ldr	r3, [r7, #4]
 800233c:	695b      	ldr	r3, [r3, #20]
 800233e:	f043 0201 	orr.w	r2, r3, #1
 8002342:	687b      	ldr	r3, [r7, #4]
 8002344:	615a      	str	r2, [r3, #20]
}
 8002346:	bf00      	nop
 8002348:	370c      	adds	r7, #12
 800234a:	46bd      	mov	sp, r7
 800234c:	f85d 7b04 	ldr.w	r7, [sp], #4
 8002350:	4770      	bx	lr
	...

08002354 <LL_TIM_Init>:
  * @retval An ErrorStatus enumeration value:
  *          - SUCCESS: TIMx registers are de-initialized
  *          - ERROR: not applicable
  */
ErrorStatus LL_TIM_Init(TIM_TypeDef *TIMx, LL_TIM_InitTypeDef *TIM_InitStruct)
{
 8002354:	b580      	push	{r7, lr}
 8002356:	b084      	sub	sp, #16
 8002358:	af00      	add	r7, sp, #0
 800235a:	6078      	str	r0, [r7, #4]
 800235c:	6039      	str	r1, [r7, #0]
  /* Check the parameters */
  assert_param(IS_TIM_INSTANCE(TIMx));
  assert_param(IS_LL_TIM_COUNTERMODE(TIM_InitStruct->CounterMode));
  assert_param(IS_LL_TIM_CLOCKDIVISION(TIM_InitStruct->ClockDivision));

  tmpcr1 = LL_TIM_ReadReg(TIMx, CR1);
 800235e:	687b      	ldr	r3, [r7, #4]
 8002360:	681b      	ldr	r3, [r3, #0]
 8002362:	60fb      	str	r3, [r7, #12]

  if (IS_TIM_COUNTER_MODE_SELECT_INSTANCE(TIMx))
 8002364:	687b      	ldr	r3, [r7, #4]
 8002366:	4a2f      	ldr	r2, [pc, #188]	; (8002424 <LL_TIM_Init+0xd0>)
 8002368:	4293      	cmp	r3, r2
 800236a:	d007      	beq.n	800237c <LL_TIM_Init+0x28>
 800236c:	687b      	ldr	r3, [r7, #4]
 800236e:	f1b3 4f80 	cmp.w	r3, #1073741824	; 0x40000000
 8002372:	d003      	beq.n	800237c <LL_TIM_Init+0x28>
 8002374:	687b      	ldr	r3, [r7, #4]
 8002376:	4a2c      	ldr	r2, [pc, #176]	; (8002428 <LL_TIM_Init+0xd4>)
 8002378:	4293      	cmp	r3, r2
 800237a:	d106      	bne.n	800238a <LL_TIM_Init+0x36>
  {
    /* Select the Counter Mode */
    MODIFY_REG(tmpcr1, (TIM_CR1_DIR | TIM_CR1_CMS), TIM_InitStruct->CounterMode);
 800237c:	68fb      	ldr	r3, [r7, #12]
 800237e:	f023 0270 	bic.w	r2, r3, #112	; 0x70
 8002382:	683b      	ldr	r3, [r7, #0]
 8002384:	685b      	ldr	r3, [r3, #4]
 8002386:	4313      	orrs	r3, r2
 8002388:	60fb      	str	r3, [r7, #12]
  }

  if (IS_TIM_CLOCK_DIVISION_INSTANCE(TIMx))
 800238a:	687b      	ldr	r3, [r7, #4]
 800238c:	4a25      	ldr	r2, [pc, #148]	; (8002424 <LL_TIM_Init+0xd0>)
 800238e:	4293      	cmp	r3, r2
 8002390:	d013      	beq.n	80023ba <LL_TIM_Init+0x66>
 8002392:	687b      	ldr	r3, [r7, #4]
 8002394:	f1b3 4f80 	cmp.w	r3, #1073741824	; 0x40000000
 8002398:	d00f      	beq.n	80023ba <LL_TIM_Init+0x66>
 800239a:	687b      	ldr	r3, [r7, #4]
 800239c:	4a22      	ldr	r2, [pc, #136]	; (8002428 <LL_TIM_Init+0xd4>)
 800239e:	4293      	cmp	r3, r2
 80023a0:	d00b      	beq.n	80023ba <LL_TIM_Init+0x66>
 80023a2:	687b      	ldr	r3, [r7, #4]
 80023a4:	4a21      	ldr	r2, [pc, #132]	; (800242c <LL_TIM_Init+0xd8>)
 80023a6:	4293      	cmp	r3, r2
 80023a8:	d007      	beq.n	80023ba <LL_TIM_Init+0x66>
 80023aa:	687b      	ldr	r3, [r7, #4]
 80023ac:	4a20      	ldr	r2, [pc, #128]	; (8002430 <LL_TIM_Init+0xdc>)
 80023ae:	4293      	cmp	r3, r2
 80023b0:	d003      	beq.n	80023ba <LL_TIM_Init+0x66>
 80023b2:	687b      	ldr	r3, [r7, #4]
 80023b4:	4a1f      	ldr	r2, [pc, #124]	; (8002434 <LL_TIM_Init+0xe0>)
 80023b6:	4293      	cmp	r3, r2
 80023b8:	d106      	bne.n	80023c8 <LL_TIM_Init+0x74>
  {
    /* Set the clock division */
    MODIFY_REG(tmpcr1, TIM_CR1_CKD, TIM_InitStruct->ClockDivision);
 80023ba:	68fb      	ldr	r3, [r7, #12]
 80023bc:	f423 7240 	bic.w	r2, r3, #768	; 0x300
 80023c0:	683b      	ldr	r3, [r7, #0]
 80023c2:	68db      	ldr	r3, [r3, #12]
 80023c4:	4313      	orrs	r3, r2
 80023c6:	60fb      	str	r3, [r7, #12]
  }

  /* Write to TIMx CR1 */
  LL_TIM_WriteReg(TIMx, CR1, tmpcr1);
 80023c8:	687b      	ldr	r3, [r7, #4]
 80023ca:	68fa      	ldr	r2, [r7, #12]
 80023cc:	601a      	str	r2, [r3, #0]

  /* Set the Autoreload value */
  LL_TIM_SetAutoReload(TIMx, TIM_InitStruct->Autoreload);
 80023ce:	683b      	ldr	r3, [r7, #0]
 80023d0:	689b      	ldr	r3, [r3, #8]
 80023d2:	4619      	mov	r1, r3
 80023d4:	6878      	ldr	r0, [r7, #4]
 80023d6:	f7ff ff3a 	bl	800224e <LL_TIM_SetAutoReload>

  /* Set the Prescaler value */
  LL_TIM_SetPrescaler(TIMx, TIM_InitStruct->Prescaler);
 80023da:	683b      	ldr	r3, [r7, #0]
 80023dc:	881b      	ldrh	r3, [r3, #0]
 80023de:	4619      	mov	r1, r3
 80023e0:	6878      	ldr	r0, [r7, #4]
 80023e2:	f7ff ff26 	bl	8002232 <LL_TIM_SetPrescaler>

  if (IS_TIM_REPETITION_COUNTER_INSTANCE(TIMx))
 80023e6:	687b      	ldr	r3, [r7, #4]
 80023e8:	4a0e      	ldr	r2, [pc, #56]	; (8002424 <LL_TIM_Init+0xd0>)
 80023ea:	4293      	cmp	r3, r2
 80023ec:	d00b      	beq.n	8002406 <LL_TIM_Init+0xb2>
 80023ee:	687b      	ldr	r3, [r7, #4]
 80023f0:	4a0e      	ldr	r2, [pc, #56]	; (800242c <LL_TIM_Init+0xd8>)
 80023f2:	4293      	cmp	r3, r2
 80023f4:	d007      	beq.n	8002406 <LL_TIM_Init+0xb2>
 80023f6:	687b      	ldr	r3, [r7, #4]
 80023f8:	4a0d      	ldr	r2, [pc, #52]	; (8002430 <LL_TIM_Init+0xdc>)
 80023fa:	4293      	cmp	r3, r2
 80023fc:	d003      	beq.n	8002406 <LL_TIM_Init+0xb2>
 80023fe:	687b      	ldr	r3, [r7, #4]
 8002400:	4a0c      	ldr	r2, [pc, #48]	; (8002434 <LL_TIM_Init+0xe0>)
 8002402:	4293      	cmp	r3, r2
 8002404:	d105      	bne.n	8002412 <LL_TIM_Init+0xbe>
  {
    /* Set the Repetition Counter value */
    LL_TIM_SetRepetitionCounter(TIMx, TIM_InitStruct->RepetitionCounter);
 8002406:	683b      	ldr	r3, [r7, #0]
 8002408:	691b      	ldr	r3, [r3, #16]
 800240a:	4619      	mov	r1, r3
 800240c:	6878      	ldr	r0, [r7, #4]
 800240e:	f7ff ff2c 	bl	800226a <LL_TIM_SetRepetitionCounter>
  }

  /* Generate an update event to reload the Prescaler
     and the repetition counter value (if applicable) immediately */
  LL_TIM_GenerateEvent_UPDATE(TIMx);
 8002412:	6878      	ldr	r0, [r7, #4]
 8002414:	f7ff ff8d 	bl	8002332 <LL_TIM_GenerateEvent_UPDATE>

  return SUCCESS;
 8002418:	2300      	movs	r3, #0
}
 800241a:	4618      	mov	r0, r3
 800241c:	3710      	adds	r7, #16
 800241e:	46bd      	mov	sp, r7
 8002420:	bd80      	pop	{r7, pc}
 8002422:	bf00      	nop
 8002424:	40012c00 	.word	0x40012c00
 8002428:	40000400 	.word	0x40000400
 800242c:	40014000 	.word	0x40014000
 8002430:	40014400 	.word	0x40014400
 8002434:	40014800 	.word	0x40014800

08002438 <LL_TIM_OC_Init>:
  * @retval An ErrorStatus enumeration value:
  *          - SUCCESS: TIMx output channel is initialized
  *          - ERROR: TIMx output channel is not initialized
  */
ErrorStatus LL_TIM_OC_Init(TIM_TypeDef *TIMx, uint32_t Channel, LL_TIM_OC_InitTypeDef *TIM_OC_InitStruct)
{
 8002438:	b580      	push	{r7, lr}
 800243a:	b086      	sub	sp, #24
 800243c:	af00      	add	r7, sp, #0
 800243e:	60f8      	str	r0, [r7, #12]
 8002440:	60b9      	str	r1, [r7, #8]
 8002442:	607a      	str	r2, [r7, #4]
  ErrorStatus result = ERROR;
 8002444:	2301      	movs	r3, #1
 8002446:	75fb      	strb	r3, [r7, #23]

  switch (Channel)
 8002448:	68bb      	ldr	r3, [r7, #8]
 800244a:	f5b3 1f80 	cmp.w	r3, #1048576	; 0x100000
 800244e:	d045      	beq.n	80024dc <LL_TIM_OC_Init+0xa4>
 8002450:	68bb      	ldr	r3, [r7, #8]
 8002452:	f5b3 1f80 	cmp.w	r3, #1048576	; 0x100000
 8002456:	d848      	bhi.n	80024ea <LL_TIM_OC_Init+0xb2>
 8002458:	68bb      	ldr	r3, [r7, #8]
 800245a:	f5b3 3f80 	cmp.w	r3, #65536	; 0x10000
 800245e:	d036      	beq.n	80024ce <LL_TIM_OC_Init+0x96>
 8002460:	68bb      	ldr	r3, [r7, #8]
 8002462:	f5b3 3f80 	cmp.w	r3, #65536	; 0x10000
 8002466:	d840      	bhi.n	80024ea <LL_TIM_OC_Init+0xb2>
 8002468:	68bb      	ldr	r3, [r7, #8]
 800246a:	f5b3 5f80 	cmp.w	r3, #4096	; 0x1000
 800246e:	d027      	beq.n	80024c0 <LL_TIM_OC_Init+0x88>
 8002470:	68bb      	ldr	r3, [r7, #8]
 8002472:	f5b3 5f80 	cmp.w	r3, #4096	; 0x1000
 8002476:	d838      	bhi.n	80024ea <LL_TIM_OC_Init+0xb2>
 8002478:	68bb      	ldr	r3, [r7, #8]
 800247a:	f5b3 7f80 	cmp.w	r3, #256	; 0x100
 800247e:	d018      	beq.n	80024b2 <LL_TIM_OC_Init+0x7a>
 8002480:	68bb      	ldr	r3, [r7, #8]
 8002482:	f5b3 7f80 	cmp.w	r3, #256	; 0x100
 8002486:	d830      	bhi.n	80024ea <LL_TIM_OC_Init+0xb2>
 8002488:	68bb      	ldr	r3, [r7, #8]
 800248a:	2b01      	cmp	r3, #1
 800248c:	d003      	beq.n	8002496 <LL_TIM_OC_Init+0x5e>
 800248e:	68bb      	ldr	r3, [r7, #8]
 8002490:	2b10      	cmp	r3, #16
 8002492:	d007      	beq.n	80024a4 <LL_TIM_OC_Init+0x6c>
    case LL_TIM_CHANNEL_CH6:
      result = OC6Config(TIMx, TIM_OC_InitStruct);
      break;
#endif /* TIM_CCER_CC5E */
    default:
      break;
 8002494:	e029      	b.n	80024ea <LL_TIM_OC_Init+0xb2>
      result = OC1Config(TIMx, TIM_OC_InitStruct);
 8002496:	6879      	ldr	r1, [r7, #4]
 8002498:	68f8      	ldr	r0, [r7, #12]
 800249a:	f000 f82d 	bl	80024f8 <OC1Config>
 800249e:	4603      	mov	r3, r0
 80024a0:	75fb      	strb	r3, [r7, #23]
      break;
 80024a2:	e023      	b.n	80024ec <LL_TIM_OC_Init+0xb4>
      result = OC2Config(TIMx, TIM_OC_InitStruct);
 80024a4:	6879      	ldr	r1, [r7, #4]
 80024a6:	68f8      	ldr	r0, [r7, #12]
 80024a8:	f000 f8a0 	bl	80025ec <OC2Config>
 80024ac:	4603      	mov	r3, r0
 80024ae:	75fb      	strb	r3, [r7, #23]
      break;
 80024b0:	e01c      	b.n	80024ec <LL_TIM_OC_Init+0xb4>
      result = OC3Config(TIMx, TIM_OC_InitStruct);
 80024b2:	6879      	ldr	r1, [r7, #4]
 80024b4:	68f8      	ldr	r0, [r7, #12]
 80024b6:	f000 f917 	bl	80026e8 <OC3Config>
 80024ba:	4603      	mov	r3, r0
 80024bc:	75fb      	strb	r3, [r7, #23]
      break;
 80024be:	e015      	b.n	80024ec <LL_TIM_OC_Init+0xb4>
      result = OC4Config(TIMx, TIM_OC_InitStruct);
 80024c0:	6879      	ldr	r1, [r7, #4]
 80024c2:	68f8      	ldr	r0, [r7, #12]
 80024c4:	f000 f98e 	bl	80027e4 <OC4Config>
 80024c8:	4603      	mov	r3, r0
 80024ca:	75fb      	strb	r3, [r7, #23]
      break;
 80024cc:	e00e      	b.n	80024ec <LL_TIM_OC_Init+0xb4>
      result = OC5Config(TIMx, TIM_OC_InitStruct);
 80024ce:	6879      	ldr	r1, [r7, #4]
 80024d0:	68f8      	ldr	r0, [r7, #12]
 80024d2:	f000 f9ed 	bl	80028b0 <OC5Config>
 80024d6:	4603      	mov	r3, r0
 80024d8:	75fb      	strb	r3, [r7, #23]
      break;
 80024da:	e007      	b.n	80024ec <LL_TIM_OC_Init+0xb4>
      result = OC6Config(TIMx, TIM_OC_InitStruct);
 80024dc:	6879      	ldr	r1, [r7, #4]
 80024de:	68f8      	ldr	r0, [r7, #12]
 80024e0:	f000 fa44 	bl	800296c <OC6Config>
 80024e4:	4603      	mov	r3, r0
 80024e6:	75fb      	strb	r3, [r7, #23]
      break;
 80024e8:	e000      	b.n	80024ec <LL_TIM_OC_Init+0xb4>
      break;
 80024ea:	bf00      	nop
  }

  return result;
 80024ec:	7dfb      	ldrb	r3, [r7, #23]
}
 80024ee:	4618      	mov	r0, r3
 80024f0:	3718      	adds	r7, #24
 80024f2:	46bd      	mov	sp, r7
 80024f4:	bd80      	pop	{r7, pc}
	...

080024f8 <OC1Config>:
  * @retval An ErrorStatus enumeration value:
  *          - SUCCESS: TIMx registers are de-initialized
  *          - ERROR: not applicable
  */
static ErrorStatus OC1Config(TIM_TypeDef *TIMx, LL_TIM_OC_InitTypeDef *TIM_OCInitStruct)
{
 80024f8:	b580      	push	{r7, lr}
 80024fa:	b086      	sub	sp, #24
 80024fc:	af00      	add	r7, sp, #0
 80024fe:	6078      	str	r0, [r7, #4]
 8002500:	6039      	str	r1, [r7, #0]
  assert_param(IS_LL_TIM_OCPOLARITY(TIM_OCInitStruct->OCPolarity));
  assert_param(IS_LL_TIM_OCSTATE(TIM_OCInitStruct->OCNState));
  assert_param(IS_LL_TIM_OCPOLARITY(TIM_OCInitStruct->OCNPolarity));

  /* Disable the Channel 1: Reset the CC1E Bit */
  CLEAR_BIT(TIMx->CCER, TIM_CCER_CC1E);
 8002502:	687b      	ldr	r3, [r7, #4]
 8002504:	6a1b      	ldr	r3, [r3, #32]
 8002506:	f023 0201 	bic.w	r2, r3, #1
 800250a:	687b      	ldr	r3, [r7, #4]
 800250c:	621a      	str	r2, [r3, #32]

  /* Get the TIMx CCER register value */
  tmpccer = LL_TIM_ReadReg(TIMx, CCER);
 800250e:	687b      	ldr	r3, [r7, #4]
 8002510:	6a1b      	ldr	r3, [r3, #32]
 8002512:	617b      	str	r3, [r7, #20]

  /* Get the TIMx CR2 register value */
  tmpcr2 = LL_TIM_ReadReg(TIMx, CR2);
 8002514:	687b      	ldr	r3, [r7, #4]
 8002516:	685b      	ldr	r3, [r3, #4]
 8002518:	613b      	str	r3, [r7, #16]

  /* Get the TIMx CCMR1 register value */
  tmpccmr1 = LL_TIM_ReadReg(TIMx, CCMR1);
 800251a:	687b      	ldr	r3, [r7, #4]
 800251c:	699b      	ldr	r3, [r3, #24]
 800251e:	60fb      	str	r3, [r7, #12]

  /* Reset Capture/Compare selection Bits */
  CLEAR_BIT(tmpccmr1, TIM_CCMR1_CC1S);
 8002520:	68fb      	ldr	r3, [r7, #12]
 8002522:	f023 0303 	bic.w	r3, r3, #3
 8002526:	60fb      	str	r3, [r7, #12]

  /* Set the Output Compare Mode */
  MODIFY_REG(tmpccmr1, TIM_CCMR1_OC1M, TIM_OCInitStruct->OCMode);
 8002528:	68fb      	ldr	r3, [r7, #12]
 800252a:	f423 3380 	bic.w	r3, r3, #65536	; 0x10000
 800252e:	f023 0370 	bic.w	r3, r3, #112	; 0x70
 8002532:	683a      	ldr	r2, [r7, #0]
 8002534:	6812      	ldr	r2, [r2, #0]
 8002536:	4313      	orrs	r3, r2
 8002538:	60fb      	str	r3, [r7, #12]

  /* Set the Output Compare Polarity */
  MODIFY_REG(tmpccer, TIM_CCER_CC1P, TIM_OCInitStruct->OCPolarity);
 800253a:	697b      	ldr	r3, [r7, #20]
 800253c:	f023 0202 	bic.w	r2, r3, #2
 8002540:	683b      	ldr	r3, [r7, #0]
 8002542:	691b      	ldr	r3, [r3, #16]
 8002544:	4313      	orrs	r3, r2
 8002546:	617b      	str	r3, [r7, #20]

  /* Set the Output State */
  MODIFY_REG(tmpccer, TIM_CCER_CC1E, TIM_OCInitStruct->OCState);
 8002548:	697b      	ldr	r3, [r7, #20]
 800254a:	f023 0201 	bic.w	r2, r3, #1
 800254e:	683b      	ldr	r3, [r7, #0]
 8002550:	685b      	ldr	r3, [r3, #4]
 8002552:	4313      	orrs	r3, r2
 8002554:	617b      	str	r3, [r7, #20]

  if (IS_TIM_BREAK_INSTANCE(TIMx))
 8002556:	687b      	ldr	r3, [r7, #4]
 8002558:	4a20      	ldr	r2, [pc, #128]	; (80025dc <OC1Config+0xe4>)
 800255a:	4293      	cmp	r3, r2
 800255c:	d00b      	beq.n	8002576 <OC1Config+0x7e>
 800255e:	687b      	ldr	r3, [r7, #4]
 8002560:	4a1f      	ldr	r2, [pc, #124]	; (80025e0 <OC1Config+0xe8>)
 8002562:	4293      	cmp	r3, r2
 8002564:	d007      	beq.n	8002576 <OC1Config+0x7e>
 8002566:	687b      	ldr	r3, [r7, #4]
 8002568:	4a1e      	ldr	r2, [pc, #120]	; (80025e4 <OC1Config+0xec>)
 800256a:	4293      	cmp	r3, r2
 800256c:	d003      	beq.n	8002576 <OC1Config+0x7e>
 800256e:	687b      	ldr	r3, [r7, #4]
 8002570:	4a1d      	ldr	r2, [pc, #116]	; (80025e8 <OC1Config+0xf0>)
 8002572:	4293      	cmp	r3, r2
 8002574:	d11e      	bne.n	80025b4 <OC1Config+0xbc>
  {
    assert_param(IS_LL_TIM_OCIDLESTATE(TIM_OCInitStruct->OCNIdleState));
    assert_param(IS_LL_TIM_OCIDLESTATE(TIM_OCInitStruct->OCIdleState));

    /* Set the complementary output Polarity */
    MODIFY_REG(tmpccer, TIM_CCER_CC1NP, TIM_OCInitStruct->OCNPolarity << 2U);
 8002576:	697b      	ldr	r3, [r7, #20]
 8002578:	f023 0208 	bic.w	r2, r3, #8
 800257c:	683b      	ldr	r3, [r7, #0]
 800257e:	695b      	ldr	r3, [r3, #20]
 8002580:	009b      	lsls	r3, r3, #2
 8002582:	4313      	orrs	r3, r2
 8002584:	617b      	str	r3, [r7, #20]

    /* Set the complementary output State */
    MODIFY_REG(tmpccer, TIM_CCER_CC1NE, TIM_OCInitStruct->OCNState << 2U);
 8002586:	697b      	ldr	r3, [r7, #20]
 8002588:	f023 0204 	bic.w	r2, r3, #4
 800258c:	683b      	ldr	r3, [r7, #0]
 800258e:	689b      	ldr	r3, [r3, #8]
 8002590:	009b      	lsls	r3, r3, #2
 8002592:	4313      	orrs	r3, r2
 8002594:	617b      	str	r3, [r7, #20]

    /* Set the Output Idle state */
    MODIFY_REG(tmpcr2, TIM_CR2_OIS1, TIM_OCInitStruct->OCIdleState);
 8002596:	693b      	ldr	r3, [r7, #16]
 8002598:	f423 7280 	bic.w	r2, r3, #256	; 0x100
 800259c:	683b      	ldr	r3, [r7, #0]
 800259e:	699b      	ldr	r3, [r3, #24]
 80025a0:	4313      	orrs	r3, r2
 80025a2:	613b      	str	r3, [r7, #16]

    /* Set the complementary output Idle state */
    MODIFY_REG(tmpcr2, TIM_CR2_OIS1N, TIM_OCInitStruct->OCNIdleState << 1U);
 80025a4:	693b      	ldr	r3, [r7, #16]
 80025a6:	f423 7200 	bic.w	r2, r3, #512	; 0x200
 80025aa:	683b      	ldr	r3, [r7, #0]
 80025ac:	69db      	ldr	r3, [r3, #28]
 80025ae:	005b      	lsls	r3, r3, #1
 80025b0:	4313      	orrs	r3, r2
 80025b2:	613b      	str	r3, [r7, #16]
  }

  /* Write to TIMx CR2 */
  LL_TIM_WriteReg(TIMx, CR2, tmpcr2);
 80025b4:	687b      	ldr	r3, [r7, #4]
 80025b6:	693a      	ldr	r2, [r7, #16]
 80025b8:	605a      	str	r2, [r3, #4]

  /* Write to TIMx CCMR1 */
  LL_TIM_WriteReg(TIMx, CCMR1, tmpccmr1);
 80025ba:	687b      	ldr	r3, [r7, #4]
 80025bc:	68fa      	ldr	r2, [r7, #12]
 80025be:	619a      	str	r2, [r3, #24]

  /* Set the Capture Compare Register value */
  LL_TIM_OC_SetCompareCH1(TIMx, TIM_OCInitStruct->CompareValue);
 80025c0:	683b      	ldr	r3, [r7, #0]
 80025c2:	68db      	ldr	r3, [r3, #12]
 80025c4:	4619      	mov	r1, r3
 80025c6:	6878      	ldr	r0, [r7, #4]
 80025c8:	f7ff fe5d 	bl	8002286 <LL_TIM_OC_SetCompareCH1>

  /* Write to TIMx CCER */
  LL_TIM_WriteReg(TIMx, CCER, tmpccer);
 80025cc:	687b      	ldr	r3, [r7, #4]
 80025ce:	697a      	ldr	r2, [r7, #20]
 80025d0:	621a      	str	r2, [r3, #32]

  return SUCCESS;
 80025d2:	2300      	movs	r3, #0
}
 80025d4:	4618      	mov	r0, r3
 80025d6:	3718      	adds	r7, #24
 80025d8:	46bd      	mov	sp, r7
 80025da:	bd80      	pop	{r7, pc}
 80025dc:	40012c00 	.word	0x40012c00
 80025e0:	40014000 	.word	0x40014000
 80025e4:	40014400 	.word	0x40014400
 80025e8:	40014800 	.word	0x40014800

080025ec <OC2Config>:
  * @retval An ErrorStatus enumeration value:
  *          - SUCCESS: TIMx registers are de-initialized
  *          - ERROR: not applicable
  */
static ErrorStatus OC2Config(TIM_TypeDef *TIMx, LL_TIM_OC_InitTypeDef *TIM_OCInitStruct)
{
 80025ec:	b580      	push	{r7, lr}
 80025ee:	b086      	sub	sp, #24
 80025f0:	af00      	add	r7, sp, #0
 80025f2:	6078      	str	r0, [r7, #4]
 80025f4:	6039      	str	r1, [r7, #0]
  assert_param(IS_LL_TIM_OCPOLARITY(TIM_OCInitStruct->OCPolarity));
  assert_param(IS_LL_TIM_OCSTATE(TIM_OCInitStruct->OCNState));
  assert_param(IS_LL_TIM_OCPOLARITY(TIM_OCInitStruct->OCNPolarity));

  /* Disable the Channel 2: Reset the CC2E Bit */
  CLEAR_BIT(TIMx->CCER, TIM_CCER_CC2E);
 80025f6:	687b      	ldr	r3, [r7, #4]
 80025f8:	6a1b      	ldr	r3, [r3, #32]
 80025fa:	f023 0210 	bic.w	r2, r3, #16
 80025fe:	687b      	ldr	r3, [r7, #4]
 8002600:	621a      	str	r2, [r3, #32]

  /* Get the TIMx CCER register value */
  tmpccer =  LL_TIM_ReadReg(TIMx, CCER);
 8002602:	687b      	ldr	r3, [r7, #4]
 8002604:	6a1b      	ldr	r3, [r3, #32]
 8002606:	617b      	str	r3, [r7, #20]

  /* Get the TIMx CR2 register value */
  tmpcr2 = LL_TIM_ReadReg(TIMx, CR2);
 8002608:	687b      	ldr	r3, [r7, #4]
 800260a:	685b      	ldr	r3, [r3, #4]
 800260c:	613b      	str	r3, [r7, #16]

  /* Get the TIMx CCMR1 register value */
  tmpccmr1 = LL_TIM_ReadReg(TIMx, CCMR1);
 800260e:	687b      	ldr	r3, [r7, #4]
 8002610:	699b      	ldr	r3, [r3, #24]
 8002612:	60fb      	str	r3, [r7, #12]

  /* Reset Capture/Compare selection Bits */
  CLEAR_BIT(tmpccmr1, TIM_CCMR1_CC2S);
 8002614:	68fb      	ldr	r3, [r7, #12]
 8002616:	f423 7340 	bic.w	r3, r3, #768	; 0x300
 800261a:	60fb      	str	r3, [r7, #12]

  /* Select the Output Compare Mode */
  MODIFY_REG(tmpccmr1, TIM_CCMR1_OC2M, TIM_OCInitStruct->OCMode << 8U);
 800261c:	68fb      	ldr	r3, [r7, #12]
 800261e:	f023 7380 	bic.w	r3, r3, #16777216	; 0x1000000
 8002622:	f423 43e0 	bic.w	r3, r3, #28672	; 0x7000
 8002626:	683a      	ldr	r2, [r7, #0]
 8002628:	6812      	ldr	r2, [r2, #0]
 800262a:	0212      	lsls	r2, r2, #8
 800262c:	4313      	orrs	r3, r2
 800262e:	60fb      	str	r3, [r7, #12]

  /* Set the Output Compare Polarity */
  MODIFY_REG(tmpccer, TIM_CCER_CC2P, TIM_OCInitStruct->OCPolarity << 4U);
 8002630:	697b      	ldr	r3, [r7, #20]
 8002632:	f023 0220 	bic.w	r2, r3, #32
 8002636:	683b      	ldr	r3, [r7, #0]
 8002638:	691b      	ldr	r3, [r3, #16]
 800263a:	011b      	lsls	r3, r3, #4
 800263c:	4313      	orrs	r3, r2
 800263e:	617b      	str	r3, [r7, #20]

  /* Set the Output State */
  MODIFY_REG(tmpccer, TIM_CCER_CC2E, TIM_OCInitStruct->OCState << 4U);
 8002640:	697b      	ldr	r3, [r7, #20]
 8002642:	f023 0210 	bic.w	r2, r3, #16
 8002646:	683b      	ldr	r3, [r7, #0]
 8002648:	685b      	ldr	r3, [r3, #4]
 800264a:	011b      	lsls	r3, r3, #4
 800264c:	4313      	orrs	r3, r2
 800264e:	617b      	str	r3, [r7, #20]

  if (IS_TIM_BREAK_INSTANCE(TIMx))
 8002650:	687b      	ldr	r3, [r7, #4]
 8002652:	4a21      	ldr	r2, [pc, #132]	; (80026d8 <OC2Config+0xec>)
 8002654:	4293      	cmp	r3, r2
 8002656:	d00b      	beq.n	8002670 <OC2Config+0x84>
 8002658:	687b      	ldr	r3, [r7, #4]
 800265a:	4a20      	ldr	r2, [pc, #128]	; (80026dc <OC2Config+0xf0>)
 800265c:	4293      	cmp	r3, r2
 800265e:	d007      	beq.n	8002670 <OC2Config+0x84>
 8002660:	687b      	ldr	r3, [r7, #4]
 8002662:	4a1f      	ldr	r2, [pc, #124]	; (80026e0 <OC2Config+0xf4>)
 8002664:	4293      	cmp	r3, r2
 8002666:	d003      	beq.n	8002670 <OC2Config+0x84>
 8002668:	687b      	ldr	r3, [r7, #4]
 800266a:	4a1e      	ldr	r2, [pc, #120]	; (80026e4 <OC2Config+0xf8>)
 800266c:	4293      	cmp	r3, r2
 800266e:	d11f      	bne.n	80026b0 <OC2Config+0xc4>
  {
    assert_param(IS_LL_TIM_OCIDLESTATE(TIM_OCInitStruct->OCNIdleState));
    assert_param(IS_LL_TIM_OCIDLESTATE(TIM_OCInitStruct->OCIdleState));

    /* Set the complementary output Polarity */
    MODIFY_REG(tmpccer, TIM_CCER_CC2NP, TIM_OCInitStruct->OCNPolarity << 6U);
 8002670:	697b      	ldr	r3, [r7, #20]
 8002672:	f023 0280 	bic.w	r2, r3, #128	; 0x80
 8002676:	683b      	ldr	r3, [r7, #0]
 8002678:	695b      	ldr	r3, [r3, #20]
 800267a:	019b      	lsls	r3, r3, #6
 800267c:	4313      	orrs	r3, r2
 800267e:	617b      	str	r3, [r7, #20]

    /* Set the complementary output State */
    MODIFY_REG(tmpccer, TIM_CCER_CC2NE, TIM_OCInitStruct->OCNState << 6U);
 8002680:	697b      	ldr	r3, [r7, #20]
 8002682:	f023 0240 	bic.w	r2, r3, #64	; 0x40
 8002686:	683b      	ldr	r3, [r7, #0]
 8002688:	689b      	ldr	r3, [r3, #8]
 800268a:	019b      	lsls	r3, r3, #6
 800268c:	4313      	orrs	r3, r2
 800268e:	617b      	str	r3, [r7, #20]

    /* Set the Output Idle state */
    MODIFY_REG(tmpcr2, TIM_CR2_OIS2, TIM_OCInitStruct->OCIdleState << 2U);
 8002690:	693b      	ldr	r3, [r7, #16]
 8002692:	f423 6280 	bic.w	r2, r3, #1024	; 0x400
 8002696:	683b      	ldr	r3, [r7, #0]
 8002698:	699b      	ldr	r3, [r3, #24]
 800269a:	009b      	lsls	r3, r3, #2
 800269c:	4313      	orrs	r3, r2
 800269e:	613b      	str	r3, [r7, #16]

#if defined(STM32F373xC) || defined(STM32F378xx)
#else
    /* Set the complementary output Idle state */
    MODIFY_REG(tmpcr2, TIM_CR2_OIS2N, TIM_OCInitStruct->OCNIdleState << 3U);
 80026a0:	693b      	ldr	r3, [r7, #16]
 80026a2:	f423 6200 	bic.w	r2, r3, #2048	; 0x800
 80026a6:	683b      	ldr	r3, [r7, #0]
 80026a8:	69db      	ldr	r3, [r3, #28]
 80026aa:	00db      	lsls	r3, r3, #3
 80026ac:	4313      	orrs	r3, r2
 80026ae:	613b      	str	r3, [r7, #16]
#endif
  }

  /* Write to TIMx CR2 */
  LL_TIM_WriteReg(TIMx, CR2, tmpcr2);
 80026b0:	687b      	ldr	r3, [r7, #4]
 80026b2:	693a      	ldr	r2, [r7, #16]
 80026b4:	605a      	str	r2, [r3, #4]

  /* Write to TIMx CCMR1 */
  LL_TIM_WriteReg(TIMx, CCMR1, tmpccmr1);
 80026b6:	687b      	ldr	r3, [r7, #4]
 80026b8:	68fa      	ldr	r2, [r7, #12]
 80026ba:	619a      	str	r2, [r3, #24]

  /* Set the Capture Compare Register value */
  LL_TIM_OC_SetCompareCH2(TIMx, TIM_OCInitStruct->CompareValue);
 80026bc:	683b      	ldr	r3, [r7, #0]
 80026be:	68db      	ldr	r3, [r3, #12]
 80026c0:	4619      	mov	r1, r3
 80026c2:	6878      	ldr	r0, [r7, #4]
 80026c4:	f7ff fded 	bl	80022a2 <LL_TIM_OC_SetCompareCH2>

  /* Write to TIMx CCER */
  LL_TIM_WriteReg(TIMx, CCER, tmpccer);
 80026c8:	687b      	ldr	r3, [r7, #4]
 80026ca:	697a      	ldr	r2, [r7, #20]
 80026cc:	621a      	str	r2, [r3, #32]

  return SUCCESS;
 80026ce:	2300      	movs	r3, #0
}
 80026d0:	4618      	mov	r0, r3
 80026d2:	3718      	adds	r7, #24
 80026d4:	46bd      	mov	sp, r7
 80026d6:	bd80      	pop	{r7, pc}
 80026d8:	40012c00 	.word	0x40012c00
 80026dc:	40014000 	.word	0x40014000
 80026e0:	40014400 	.word	0x40014400
 80026e4:	40014800 	.word	0x40014800

080026e8 <OC3Config>:
  * @retval An ErrorStatus enumeration value:
  *          - SUCCESS: TIMx registers are de-initialized
  *          - ERROR: not applicable
  */
static ErrorStatus OC3Config(TIM_TypeDef *TIMx, LL_TIM_OC_InitTypeDef *TIM_OCInitStruct)
{
 80026e8:	b580      	push	{r7, lr}
 80026ea:	b086      	sub	sp, #24
 80026ec:	af00      	add	r7, sp, #0
 80026ee:	6078      	str	r0, [r7, #4]
 80026f0:	6039      	str	r1, [r7, #0]
  assert_param(IS_LL_TIM_OCPOLARITY(TIM_OCInitStruct->OCPolarity));
  assert_param(IS_LL_TIM_OCSTATE(TIM_OCInitStruct->OCNState));
  assert_param(IS_LL_TIM_OCPOLARITY(TIM_OCInitStruct->OCNPolarity));

  /* Disable the Channel 3: Reset the CC3E Bit */
  CLEAR_BIT(TIMx->CCER, TIM_CCER_CC3E);
 80026f2:	687b      	ldr	r3, [r7, #4]
 80026f4:	6a1b      	ldr	r3, [r3, #32]
 80026f6:	f423 7280 	bic.w	r2, r3, #256	; 0x100
 80026fa:	687b      	ldr	r3, [r7, #4]
 80026fc:	621a      	str	r2, [r3, #32]

  /* Get the TIMx CCER register value */
  tmpccer =  LL_TIM_ReadReg(TIMx, CCER);
 80026fe:	687b      	ldr	r3, [r7, #4]
 8002700:	6a1b      	ldr	r3, [r3, #32]
 8002702:	617b      	str	r3, [r7, #20]

  /* Get the TIMx CR2 register value */
  tmpcr2 = LL_TIM_ReadReg(TIMx, CR2);
 8002704:	687b      	ldr	r3, [r7, #4]
 8002706:	685b      	ldr	r3, [r3, #4]
 8002708:	613b      	str	r3, [r7, #16]

  /* Get the TIMx CCMR2 register value */
  tmpccmr2 = LL_TIM_ReadReg(TIMx, CCMR2);
 800270a:	687b      	ldr	r3, [r7, #4]
 800270c:	69db      	ldr	r3, [r3, #28]
 800270e:	60fb      	str	r3, [r7, #12]

  /* Reset Capture/Compare selection Bits */
  CLEAR_BIT(tmpccmr2, TIM_CCMR2_CC3S);
 8002710:	68fb      	ldr	r3, [r7, #12]
 8002712:	f023 0303 	bic.w	r3, r3, #3
 8002716:	60fb      	str	r3, [r7, #12]

  /* Select the Output Compare Mode */
  MODIFY_REG(tmpccmr2, TIM_CCMR2_OC3M, TIM_OCInitStruct->OCMode);
 8002718:	68fb      	ldr	r3, [r7, #12]
 800271a:	f423 3380 	bic.w	r3, r3, #65536	; 0x10000
 800271e:	f023 0370 	bic.w	r3, r3, #112	; 0x70
 8002722:	683a      	ldr	r2, [r7, #0]
 8002724:	6812      	ldr	r2, [r2, #0]
 8002726:	4313      	orrs	r3, r2
 8002728:	60fb      	str	r3, [r7, #12]

  /* Set the Output Compare Polarity */
  MODIFY_REG(tmpccer, TIM_CCER_CC3P, TIM_OCInitStruct->OCPolarity << 8U);
 800272a:	697b      	ldr	r3, [r7, #20]
 800272c:	f423 7200 	bic.w	r2, r3, #512	; 0x200
 8002730:	683b      	ldr	r3, [r7, #0]
 8002732:	691b      	ldr	r3, [r3, #16]
 8002734:	021b      	lsls	r3, r3, #8
 8002736:	4313      	orrs	r3, r2
 8002738:	617b      	str	r3, [r7, #20]

  /* Set the Output State */
  MODIFY_REG(tmpccer, TIM_CCER_CC3E, TIM_OCInitStruct->OCState << 8U);
 800273a:	697b      	ldr	r3, [r7, #20]
 800273c:	f423 7280 	bic.w	r2, r3, #256	; 0x100
 8002740:	683b      	ldr	r3, [r7, #0]
 8002742:	685b      	ldr	r3, [r3, #4]
 8002744:	021b      	lsls	r3, r3, #8
 8002746:	4313      	orrs	r3, r2
 8002748:	617b      	str	r3, [r7, #20]

  if (IS_TIM_BREAK_INSTANCE(TIMx))
 800274a:	687b      	ldr	r3, [r7, #4]
 800274c:	4a21      	ldr	r2, [pc, #132]	; (80027d4 <OC3Config+0xec>)
 800274e:	4293      	cmp	r3, r2
 8002750:	d00b      	beq.n	800276a <OC3Config+0x82>
 8002752:	687b      	ldr	r3, [r7, #4]
 8002754:	4a20      	ldr	r2, [pc, #128]	; (80027d8 <OC3Config+0xf0>)
 8002756:	4293      	cmp	r3, r2
 8002758:	d007      	beq.n	800276a <OC3Config+0x82>
 800275a:	687b      	ldr	r3, [r7, #4]
 800275c:	4a1f      	ldr	r2, [pc, #124]	; (80027dc <OC3Config+0xf4>)
 800275e:	4293      	cmp	r3, r2
 8002760:	d003      	beq.n	800276a <OC3Config+0x82>
 8002762:	687b      	ldr	r3, [r7, #4]
 8002764:	4a1e      	ldr	r2, [pc, #120]	; (80027e0 <OC3Config+0xf8>)
 8002766:	4293      	cmp	r3, r2
 8002768:	d11f      	bne.n	80027aa <OC3Config+0xc2>
  {
    assert_param(IS_LL_TIM_OCIDLESTATE(TIM_OCInitStruct->OCNIdleState));
    assert_param(IS_LL_TIM_OCIDLESTATE(TIM_OCInitStruct->OCIdleState));

    /* Set the complementary output Polarity */
    MODIFY_REG(tmpccer, TIM_CCER_CC3NP, TIM_OCInitStruct->OCNPolarity << 10U);
 800276a:	697b      	ldr	r3, [r7, #20]
 800276c:	f423 6200 	bic.w	r2, r3, #2048	; 0x800
 8002770:	683b      	ldr	r3, [r7, #0]
 8002772:	695b      	ldr	r3, [r3, #20]
 8002774:	029b      	lsls	r3, r3, #10
 8002776:	4313      	orrs	r3, r2
 8002778:	617b      	str	r3, [r7, #20]

    /* Set the complementary output State */
    MODIFY_REG(tmpccer, TIM_CCER_CC3NE, TIM_OCInitStruct->OCNState << 10U);
 800277a:	697b      	ldr	r3, [r7, #20]
 800277c:	f423 6280 	bic.w	r2, r3, #1024	; 0x400
 8002780:	683b      	ldr	r3, [r7, #0]
 8002782:	689b      	ldr	r3, [r3, #8]
 8002784:	029b      	lsls	r3, r3, #10
 8002786:	4313      	orrs	r3, r2
 8002788:	617b      	str	r3, [r7, #20]

#if defined(STM32F373xC) || defined(STM32F378xx)
#else
    /* Set the Output Idle state */
    MODIFY_REG(tmpcr2, TIM_CR2_OIS3, TIM_OCInitStruct->OCIdleState << 4U);
 800278a:	693b      	ldr	r3, [r7, #16]
 800278c:	f423 5280 	bic.w	r2, r3, #4096	; 0x1000
 8002790:	683b      	ldr	r3, [r7, #0]
 8002792:	699b      	ldr	r3, [r3, #24]
 8002794:	011b      	lsls	r3, r3, #4
 8002796:	4313      	orrs	r3, r2
 8002798:	613b      	str	r3, [r7, #16]

    /* Set the complementary output Idle state */
    MODIFY_REG(tmpcr2, TIM_CR2_OIS3N, TIM_OCInitStruct->OCNIdleState << 5U);
 800279a:	693b      	ldr	r3, [r7, #16]
 800279c:	f423 5200 	bic.w	r2, r3, #8192	; 0x2000
 80027a0:	683b      	ldr	r3, [r7, #0]
 80027a2:	69db      	ldr	r3, [r3, #28]
 80027a4:	015b      	lsls	r3, r3, #5
 80027a6:	4313      	orrs	r3, r2
 80027a8:	613b      	str	r3, [r7, #16]
#endif
  }

  /* Write to TIMx CR2 */
  LL_TIM_WriteReg(TIMx, CR2, tmpcr2);
 80027aa:	687b      	ldr	r3, [r7, #4]
 80027ac:	693a      	ldr	r2, [r7, #16]
 80027ae:	605a      	str	r2, [r3, #4]

  /* Write to TIMx CCMR2 */
  LL_TIM_WriteReg(TIMx, CCMR2, tmpccmr2);
 80027b0:	687b      	ldr	r3, [r7, #4]
 80027b2:	68fa      	ldr	r2, [r7, #12]
 80027b4:	61da      	str	r2, [r3, #28]

  /* Set the Capture Compare Register value */
  LL_TIM_OC_SetCompareCH3(TIMx, TIM_OCInitStruct->CompareValue);
 80027b6:	683b      	ldr	r3, [r7, #0]
 80027b8:	68db      	ldr	r3, [r3, #12]
 80027ba:	4619      	mov	r1, r3
 80027bc:	6878      	ldr	r0, [r7, #4]
 80027be:	f7ff fd7e 	bl	80022be <LL_TIM_OC_SetCompareCH3>

  /* Write to TIMx CCER */
  LL_TIM_WriteReg(TIMx, CCER, tmpccer);
 80027c2:	687b      	ldr	r3, [r7, #4]
 80027c4:	697a      	ldr	r2, [r7, #20]
 80027c6:	621a      	str	r2, [r3, #32]

  return SUCCESS;
 80027c8:	2300      	movs	r3, #0
}
 80027ca:	4618      	mov	r0, r3
 80027cc:	3718      	adds	r7, #24
 80027ce:	46bd      	mov	sp, r7
 80027d0:	bd80      	pop	{r7, pc}
 80027d2:	bf00      	nop
 80027d4:	40012c00 	.word	0x40012c00
 80027d8:	40014000 	.word	0x40014000
 80027dc:	40014400 	.word	0x40014400
 80027e0:	40014800 	.word	0x40014800

080027e4 <OC4Config>:
  * @retval An ErrorStatus enumeration value:
  *          - SUCCESS: TIMx registers are de-initialized
  *          - ERROR: not applicable
  */
static ErrorStatus OC4Config(TIM_TypeDef *TIMx, LL_TIM_OC_InitTypeDef *TIM_OCInitStruct)
{
 80027e4:	b580      	push	{r7, lr}
 80027e6:	b086      	sub	sp, #24
 80027e8:	af00      	add	r7, sp, #0
 80027ea:	6078      	str	r0, [r7, #4]
 80027ec:	6039      	str	r1, [r7, #0]
  assert_param(IS_LL_TIM_OCPOLARITY(TIM_OCInitStruct->OCPolarity));
  assert_param(IS_LL_TIM_OCPOLARITY(TIM_OCInitStruct->OCNPolarity));
  assert_param(IS_LL_TIM_OCSTATE(TIM_OCInitStruct->OCNState));

  /* Disable the Channel 4: Reset the CC4E Bit */
  CLEAR_BIT(TIMx->CCER, TIM_CCER_CC4E);
 80027ee:	687b      	ldr	r3, [r7, #4]
 80027f0:	6a1b      	ldr	r3, [r3, #32]
 80027f2:	f423 5280 	bic.w	r2, r3, #4096	; 0x1000
 80027f6:	687b      	ldr	r3, [r7, #4]
 80027f8:	621a      	str	r2, [r3, #32]

  /* Get the TIMx CCER register value */
  tmpccer = LL_TIM_ReadReg(TIMx, CCER);
 80027fa:	687b      	ldr	r3, [r7, #4]
 80027fc:	6a1b      	ldr	r3, [r3, #32]
 80027fe:	613b      	str	r3, [r7, #16]

  /* Get the TIMx CR2 register value */
  tmpcr2 =  LL_TIM_ReadReg(TIMx, CR2);
 8002800:	687b      	ldr	r3, [r7, #4]
 8002802:	685b      	ldr	r3, [r3, #4]
 8002804:	617b      	str	r3, [r7, #20]

  /* Get the TIMx CCMR2 register value */
  tmpccmr2 = LL_TIM_ReadReg(TIMx, CCMR2);
 8002806:	687b      	ldr	r3, [r7, #4]
 8002808:	69db      	ldr	r3, [r3, #28]
 800280a:	60fb      	str	r3, [r7, #12]

  /* Reset Capture/Compare selection Bits */
  CLEAR_BIT(tmpccmr2, TIM_CCMR2_CC4S);
 800280c:	68fb      	ldr	r3, [r7, #12]
 800280e:	f423 7340 	bic.w	r3, r3, #768	; 0x300
 8002812:	60fb      	str	r3, [r7, #12]

  /* Select the Output Compare Mode */
  MODIFY_REG(tmpccmr2, TIM_CCMR2_OC4M, TIM_OCInitStruct->OCMode << 8U);
 8002814:	68fb      	ldr	r3, [r7, #12]
 8002816:	f023 7380 	bic.w	r3, r3, #16777216	; 0x1000000
 800281a:	f423 43e0 	bic.w	r3, r3, #28672	; 0x7000
 800281e:	683a      	ldr	r2, [r7, #0]
 8002820:	6812      	ldr	r2, [r2, #0]
 8002822:	0212      	lsls	r2, r2, #8
 8002824:	4313      	orrs	r3, r2
 8002826:	60fb      	str	r3, [r7, #12]

  /* Set the Output Compare Polarity */
  MODIFY_REG(tmpccer, TIM_CCER_CC4P, TIM_OCInitStruct->OCPolarity << 12U);
 8002828:	693b      	ldr	r3, [r7, #16]
 800282a:	f423 5200 	bic.w	r2, r3, #8192	; 0x2000
 800282e:	683b      	ldr	r3, [r7, #0]
 8002830:	691b      	ldr	r3, [r3, #16]
 8002832:	031b      	lsls	r3, r3, #12
 8002834:	4313      	orrs	r3, r2
 8002836:	613b      	str	r3, [r7, #16]

  /* Set the Output State */
  MODIFY_REG(tmpccer, TIM_CCER_CC4E, TIM_OCInitStruct->OCState << 12U);
 8002838:	693b      	ldr	r3, [r7, #16]
 800283a:	f423 5280 	bic.w	r2, r3, #4096	; 0x1000
 800283e:	683b      	ldr	r3, [r7, #0]
 8002840:	685b      	ldr	r3, [r3, #4]
 8002842:	031b      	lsls	r3, r3, #12
 8002844:	4313      	orrs	r3, r2
 8002846:	613b      	str	r3, [r7, #16]

  if (IS_TIM_BREAK_INSTANCE(TIMx))
 8002848:	687b      	ldr	r3, [r7, #4]
 800284a:	4a15      	ldr	r2, [pc, #84]	; (80028a0 <OC4Config+0xbc>)
 800284c:	4293      	cmp	r3, r2
 800284e:	d00b      	beq.n	8002868 <OC4Config+0x84>
 8002850:	687b      	ldr	r3, [r7, #4]
 8002852:	4a14      	ldr	r2, [pc, #80]	; (80028a4 <OC4Config+0xc0>)
 8002854:	4293      	cmp	r3, r2
 8002856:	d007      	beq.n	8002868 <OC4Config+0x84>
 8002858:	687b      	ldr	r3, [r7, #4]
 800285a:	4a13      	ldr	r2, [pc, #76]	; (80028a8 <OC4Config+0xc4>)
 800285c:	4293      	cmp	r3, r2
 800285e:	d003      	beq.n	8002868 <OC4Config+0x84>
 8002860:	687b      	ldr	r3, [r7, #4]
 8002862:	4a12      	ldr	r2, [pc, #72]	; (80028ac <OC4Config+0xc8>)
 8002864:	4293      	cmp	r3, r2
 8002866:	d107      	bne.n	8002878 <OC4Config+0x94>
    assert_param(IS_LL_TIM_OCIDLESTATE(TIM_OCInitStruct->OCIdleState));

#if defined(STM32F373xC) || defined(STM32F378xx)
#else
    /* Set the Output Idle state */
    MODIFY_REG(tmpcr2, TIM_CR2_OIS4, TIM_OCInitStruct->OCIdleState << 6U);
 8002868:	697b      	ldr	r3, [r7, #20]
 800286a:	f423 4280 	bic.w	r2, r3, #16384	; 0x4000
 800286e:	683b      	ldr	r3, [r7, #0]
 8002870:	699b      	ldr	r3, [r3, #24]
 8002872:	019b      	lsls	r3, r3, #6
 8002874:	4313      	orrs	r3, r2
 8002876:	617b      	str	r3, [r7, #20]
#endif
  }

  /* Write to TIMx CR2 */
  LL_TIM_WriteReg(TIMx, CR2, tmpcr2);
 8002878:	687b      	ldr	r3, [r7, #4]
 800287a:	697a      	ldr	r2, [r7, #20]
 800287c:	605a      	str	r2, [r3, #4]

  /* Write to TIMx CCMR2 */
  LL_TIM_WriteReg(TIMx, CCMR2, tmpccmr2);
 800287e:	687b      	ldr	r3, [r7, #4]
 8002880:	68fa      	ldr	r2, [r7, #12]
 8002882:	61da      	str	r2, [r3, #28]

  /* Set the Capture Compare Register value */
  LL_TIM_OC_SetCompareCH4(TIMx, TIM_OCInitStruct->CompareValue);
 8002884:	683b      	ldr	r3, [r7, #0]
 8002886:	68db      	ldr	r3, [r3, #12]
 8002888:	4619      	mov	r1, r3
 800288a:	6878      	ldr	r0, [r7, #4]
 800288c:	f7ff fd25 	bl	80022da <LL_TIM_OC_SetCompareCH4>

  /* Write to TIMx CCER */
  LL_TIM_WriteReg(TIMx, CCER, tmpccer);
 8002890:	687b      	ldr	r3, [r7, #4]
 8002892:	693a      	ldr	r2, [r7, #16]
 8002894:	621a      	str	r2, [r3, #32]

  return SUCCESS;
 8002896:	2300      	movs	r3, #0
}
 8002898:	4618      	mov	r0, r3
 800289a:	3718      	adds	r7, #24
 800289c:	46bd      	mov	sp, r7
 800289e:	bd80      	pop	{r7, pc}
 80028a0:	40012c00 	.word	0x40012c00
 80028a4:	40014000 	.word	0x40014000
 80028a8:	40014400 	.word	0x40014400
 80028ac:	40014800 	.word	0x40014800

080028b0 <OC5Config>:
  * @retval An ErrorStatus enumeration value:
  *          - SUCCESS: TIMx registers are de-initialized
  *          - ERROR: not applicable
  */
static ErrorStatus OC5Config(TIM_TypeDef *TIMx, LL_TIM_OC_InitTypeDef *TIM_OCInitStruct)
{
 80028b0:	b580      	push	{r7, lr}
 80028b2:	b084      	sub	sp, #16
 80028b4:	af00      	add	r7, sp, #0
 80028b6:	6078      	str	r0, [r7, #4]
 80028b8:	6039      	str	r1, [r7, #0]
  assert_param(IS_LL_TIM_OCPOLARITY(TIM_OCInitStruct->OCPolarity));
  assert_param(IS_LL_TIM_OCPOLARITY(TIM_OCInitStruct->OCNPolarity));
  assert_param(IS_LL_TIM_OCSTATE(TIM_OCInitStruct->OCNState));

  /* Disable the Channel 5: Reset the CC5E Bit */
  CLEAR_BIT(TIMx->CCER, TIM_CCER_CC5E);
 80028ba:	687b      	ldr	r3, [r7, #4]
 80028bc:	6a1b      	ldr	r3, [r3, #32]
 80028be:	f423 3280 	bic.w	r2, r3, #65536	; 0x10000
 80028c2:	687b      	ldr	r3, [r7, #4]
 80028c4:	621a      	str	r2, [r3, #32]

  /* Get the TIMx CCER register value */
  tmpccer = LL_TIM_ReadReg(TIMx, CCER);
 80028c6:	687b      	ldr	r3, [r7, #4]
 80028c8:	6a1b      	ldr	r3, [r3, #32]
 80028ca:	60fb      	str	r3, [r7, #12]

  /* Get the TIMx CCMR3 register value */
  tmpccmr3 = LL_TIM_ReadReg(TIMx, CCMR3);
 80028cc:	687b      	ldr	r3, [r7, #4]
 80028ce:	6d5b      	ldr	r3, [r3, #84]	; 0x54
 80028d0:	60bb      	str	r3, [r7, #8]

  /* Select the Output Compare Mode */
  MODIFY_REG(tmpccmr3, TIM_CCMR3_OC5M, TIM_OCInitStruct->OCMode);
 80028d2:	68bb      	ldr	r3, [r7, #8]
 80028d4:	f423 3380 	bic.w	r3, r3, #65536	; 0x10000
 80028d8:	f023 0370 	bic.w	r3, r3, #112	; 0x70
 80028dc:	683a      	ldr	r2, [r7, #0]
 80028de:	6812      	ldr	r2, [r2, #0]
 80028e0:	4313      	orrs	r3, r2
 80028e2:	60bb      	str	r3, [r7, #8]

  /* Set the Output Compare Polarity */
  MODIFY_REG(tmpccer, TIM_CCER_CC5P, TIM_OCInitStruct->OCPolarity << 16U);
 80028e4:	68fb      	ldr	r3, [r7, #12]
 80028e6:	f423 3200 	bic.w	r2, r3, #131072	; 0x20000
 80028ea:	683b      	ldr	r3, [r7, #0]
 80028ec:	691b      	ldr	r3, [r3, #16]
 80028ee:	041b      	lsls	r3, r3, #16
 80028f0:	4313      	orrs	r3, r2
 80028f2:	60fb      	str	r3, [r7, #12]

  /* Set the Output State */
  MODIFY_REG(tmpccer, TIM_CCER_CC5E, TIM_OCInitStruct->OCState << 16U);
 80028f4:	68fb      	ldr	r3, [r7, #12]
 80028f6:	f423 3280 	bic.w	r2, r3, #65536	; 0x10000
 80028fa:	683b      	ldr	r3, [r7, #0]
 80028fc:	685b      	ldr	r3, [r3, #4]
 80028fe:	041b      	lsls	r3, r3, #16
 8002900:	4313      	orrs	r3, r2
 8002902:	60fb      	str	r3, [r7, #12]

  if (IS_TIM_BREAK_INSTANCE(TIMx))
 8002904:	687b      	ldr	r3, [r7, #4]
 8002906:	4a15      	ldr	r2, [pc, #84]	; (800295c <OC5Config+0xac>)
 8002908:	4293      	cmp	r3, r2
 800290a:	d00b      	beq.n	8002924 <OC5Config+0x74>
 800290c:	687b      	ldr	r3, [r7, #4]
 800290e:	4a14      	ldr	r2, [pc, #80]	; (8002960 <OC5Config+0xb0>)
 8002910:	4293      	cmp	r3, r2
 8002912:	d007      	beq.n	8002924 <OC5Config+0x74>
 8002914:	687b      	ldr	r3, [r7, #4]
 8002916:	4a13      	ldr	r2, [pc, #76]	; (8002964 <OC5Config+0xb4>)
 8002918:	4293      	cmp	r3, r2
 800291a:	d003      	beq.n	8002924 <OC5Config+0x74>
 800291c:	687b      	ldr	r3, [r7, #4]
 800291e:	4a12      	ldr	r2, [pc, #72]	; (8002968 <OC5Config+0xb8>)
 8002920:	4293      	cmp	r3, r2
 8002922:	d109      	bne.n	8002938 <OC5Config+0x88>
  {
    assert_param(IS_LL_TIM_OCIDLESTATE(TIM_OCInitStruct->OCNIdleState));
    assert_param(IS_LL_TIM_OCIDLESTATE(TIM_OCInitStruct->OCIdleState));

    /* Set the Output Idle state */
    MODIFY_REG(TIMx->CR2, TIM_CR2_OIS5, TIM_OCInitStruct->OCIdleState << 8U);
 8002924:	687b      	ldr	r3, [r7, #4]
 8002926:	685b      	ldr	r3, [r3, #4]
 8002928:	f423 3280 	bic.w	r2, r3, #65536	; 0x10000
 800292c:	683b      	ldr	r3, [r7, #0]
 800292e:	699b      	ldr	r3, [r3, #24]
 8002930:	021b      	lsls	r3, r3, #8
 8002932:	431a      	orrs	r2, r3
 8002934:	687b      	ldr	r3, [r7, #4]
 8002936:	605a      	str	r2, [r3, #4]

  }

  /* Write to TIMx CCMR3 */
  LL_TIM_WriteReg(TIMx, CCMR3, tmpccmr3);
 8002938:	687b      	ldr	r3, [r7, #4]
 800293a:	68ba      	ldr	r2, [r7, #8]
 800293c:	655a      	str	r2, [r3, #84]	; 0x54

  /* Set the Capture Compare Register value */
  LL_TIM_OC_SetCompareCH5(TIMx, TIM_OCInitStruct->CompareValue);
 800293e:	683b      	ldr	r3, [r7, #0]
 8002940:	68db      	ldr	r3, [r3, #12]
 8002942:	4619      	mov	r1, r3
 8002944:	6878      	ldr	r0, [r7, #4]
 8002946:	f7ff fcd6 	bl	80022f6 <LL_TIM_OC_SetCompareCH5>

  /* Write to TIMx CCER */
  LL_TIM_WriteReg(TIMx, CCER, tmpccer);
 800294a:	687b      	ldr	r3, [r7, #4]
 800294c:	68fa      	ldr	r2, [r7, #12]
 800294e:	621a      	str	r2, [r3, #32]

  return SUCCESS;
 8002950:	2300      	movs	r3, #0
}
 8002952:	4618      	mov	r0, r3
 8002954:	3710      	adds	r7, #16
 8002956:	46bd      	mov	sp, r7
 8002958:	bd80      	pop	{r7, pc}
 800295a:	bf00      	nop
 800295c:	40012c00 	.word	0x40012c00
 8002960:	40014000 	.word	0x40014000
 8002964:	40014400 	.word	0x40014400
 8002968:	40014800 	.word	0x40014800

0800296c <OC6Config>:
  * @retval An ErrorStatus enumeration value:
  *          - SUCCESS: TIMx registers are de-initialized
  *          - ERROR: not applicable
  */
static ErrorStatus OC6Config(TIM_TypeDef *TIMx, LL_TIM_OC_InitTypeDef *TIM_OCInitStruct)
{
 800296c:	b580      	push	{r7, lr}
 800296e:	b084      	sub	sp, #16
 8002970:	af00      	add	r7, sp, #0
 8002972:	6078      	str	r0, [r7, #4]
 8002974:	6039      	str	r1, [r7, #0]
  assert_param(IS_LL_TIM_OCPOLARITY(TIM_OCInitStruct->OCPolarity));
  assert_param(IS_LL_TIM_OCPOLARITY(TIM_OCInitStruct->OCNPolarity));
  assert_param(IS_LL_TIM_OCSTATE(TIM_OCInitStruct->OCNState));

  /* Disable the Channel 5: Reset the CC6E Bit */
  CLEAR_BIT(TIMx->CCER, TIM_CCER_CC6E);
 8002976:	687b      	ldr	r3, [r7, #4]
 8002978:	6a1b      	ldr	r3, [r3, #32]
 800297a:	f423 1280 	bic.w	r2, r3, #1048576	; 0x100000
 800297e:	687b      	ldr	r3, [r7, #4]
 8002980:	621a      	str	r2, [r3, #32]

  /* Get the TIMx CCER register value */
  tmpccer = LL_TIM_ReadReg(TIMx, CCER);
 8002982:	687b      	ldr	r3, [r7, #4]
 8002984:	6a1b      	ldr	r3, [r3, #32]
 8002986:	60fb      	str	r3, [r7, #12]

  /* Get the TIMx CCMR3 register value */
  tmpccmr3 = LL_TIM_ReadReg(TIMx, CCMR3);
 8002988:	687b      	ldr	r3, [r7, #4]
 800298a:	6d5b      	ldr	r3, [r3, #84]	; 0x54
 800298c:	60bb      	str	r3, [r7, #8]

  /* Select the Output Compare Mode */
  MODIFY_REG(tmpccmr3, TIM_CCMR3_OC6M, TIM_OCInitStruct->OCMode << 8U);
 800298e:	68bb      	ldr	r3, [r7, #8]
 8002990:	f023 7380 	bic.w	r3, r3, #16777216	; 0x1000000
 8002994:	f423 43e0 	bic.w	r3, r3, #28672	; 0x7000
 8002998:	683a      	ldr	r2, [r7, #0]
 800299a:	6812      	ldr	r2, [r2, #0]
 800299c:	0212      	lsls	r2, r2, #8
 800299e:	4313      	orrs	r3, r2
 80029a0:	60bb      	str	r3, [r7, #8]

  /* Set the Output Compare Polarity */
  MODIFY_REG(tmpccer, TIM_CCER_CC6P, TIM_OCInitStruct->OCPolarity << 20U);
 80029a2:	68fb      	ldr	r3, [r7, #12]
 80029a4:	f423 1200 	bic.w	r2, r3, #2097152	; 0x200000
 80029a8:	683b      	ldr	r3, [r7, #0]
 80029aa:	691b      	ldr	r3, [r3, #16]
 80029ac:	051b      	lsls	r3, r3, #20
 80029ae:	4313      	orrs	r3, r2
 80029b0:	60fb      	str	r3, [r7, #12]

  /* Set the Output State */
  MODIFY_REG(tmpccer, TIM_CCER_CC6E, TIM_OCInitStruct->OCState << 20U);
 80029b2:	68fb      	ldr	r3, [r7, #12]
 80029b4:	f423 1280 	bic.w	r2, r3, #1048576	; 0x100000
 80029b8:	683b      	ldr	r3, [r7, #0]
 80029ba:	685b      	ldr	r3, [r3, #4]
 80029bc:	051b      	lsls	r3, r3, #20
 80029be:	4313      	orrs	r3, r2
 80029c0:	60fb      	str	r3, [r7, #12]

  if (IS_TIM_BREAK_INSTANCE(TIMx))
 80029c2:	687b      	ldr	r3, [r7, #4]
 80029c4:	4a14      	ldr	r2, [pc, #80]	; (8002a18 <OC6Config+0xac>)
 80029c6:	4293      	cmp	r3, r2
 80029c8:	d00b      	beq.n	80029e2 <OC6Config+0x76>
 80029ca:	687b      	ldr	r3, [r7, #4]
 80029cc:	4a13      	ldr	r2, [pc, #76]	; (8002a1c <OC6Config+0xb0>)
 80029ce:	4293      	cmp	r3, r2
 80029d0:	d007      	beq.n	80029e2 <OC6Config+0x76>
 80029d2:	687b      	ldr	r3, [r7, #4]
 80029d4:	4a12      	ldr	r2, [pc, #72]	; (8002a20 <OC6Config+0xb4>)
 80029d6:	4293      	cmp	r3, r2
 80029d8:	d003      	beq.n	80029e2 <OC6Config+0x76>
 80029da:	687b      	ldr	r3, [r7, #4]
 80029dc:	4a11      	ldr	r2, [pc, #68]	; (8002a24 <OC6Config+0xb8>)
 80029de:	4293      	cmp	r3, r2
 80029e0:	d109      	bne.n	80029f6 <OC6Config+0x8a>
  {
    assert_param(IS_LL_TIM_OCIDLESTATE(TIM_OCInitStruct->OCNIdleState));
    assert_param(IS_LL_TIM_OCIDLESTATE(TIM_OCInitStruct->OCIdleState));

    /* Set the Output Idle state */
    MODIFY_REG(TIMx->CR2, TIM_CR2_OIS6, TIM_OCInitStruct->OCIdleState << 10U);
 80029e2:	687b      	ldr	r3, [r7, #4]
 80029e4:	685b      	ldr	r3, [r3, #4]
 80029e6:	f423 2280 	bic.w	r2, r3, #262144	; 0x40000
 80029ea:	683b      	ldr	r3, [r7, #0]
 80029ec:	699b      	ldr	r3, [r3, #24]
 80029ee:	029b      	lsls	r3, r3, #10
 80029f0:	431a      	orrs	r2, r3
 80029f2:	687b      	ldr	r3, [r7, #4]
 80029f4:	605a      	str	r2, [r3, #4]
  }

  /* Write to TIMx CCMR3 */
  LL_TIM_WriteReg(TIMx, CCMR3, tmpccmr3);
 80029f6:	687b      	ldr	r3, [r7, #4]
 80029f8:	68ba      	ldr	r2, [r7, #8]
 80029fa:	655a      	str	r2, [r3, #84]	; 0x54

  /* Set the Capture Compare Register value */
  LL_TIM_OC_SetCompareCH6(TIMx, TIM_OCInitStruct->CompareValue);
 80029fc:	683b      	ldr	r3, [r7, #0]
 80029fe:	68db      	ldr	r3, [r3, #12]
 8002a00:	4619      	mov	r1, r3
 8002a02:	6878      	ldr	r0, [r7, #4]
 8002a04:	f7ff fc87 	bl	8002316 <LL_TIM_OC_SetCompareCH6>

  /* Write to TIMx CCER */
  LL_TIM_WriteReg(TIMx, CCER, tmpccer);
 8002a08:	687b      	ldr	r3, [r7, #4]
 8002a0a:	68fa      	ldr	r2, [r7, #12]
 8002a0c:	621a      	str	r2, [r3, #32]

  return SUCCESS;
 8002a0e:	2300      	movs	r3, #0
}
 8002a10:	4618      	mov	r0, r3
 8002a12:	3710      	adds	r7, #16
 8002a14:	46bd      	mov	sp, r7
 8002a16:	bd80      	pop	{r7, pc}
 8002a18:	40012c00 	.word	0x40012c00
 8002a1c:	40014000 	.word	0x40014000
 8002a20:	40014400 	.word	0x40014400
 8002a24:	40014800 	.word	0x40014800

08002a28 <LL_InitTick>:
  *         configuration by calling this function, for a delay use rather osDelay RTOS service.
  * @param  Ticks Number of ticks
  * @retval None
  */
__STATIC_INLINE void LL_InitTick(uint32_t HCLKFrequency, uint32_t Ticks)
{
 8002a28:	b480      	push	{r7}
 8002a2a:	b083      	sub	sp, #12
 8002a2c:	af00      	add	r7, sp, #0
 8002a2e:	6078      	str	r0, [r7, #4]
 8002a30:	6039      	str	r1, [r7, #0]
  /* Configure the SysTick to have interrupt in 1ms time base */
  SysTick->LOAD  = (uint32_t)((HCLKFrequency / Ticks) - 1UL);  /* set reload register */
 8002a32:	687a      	ldr	r2, [r7, #4]
 8002a34:	683b      	ldr	r3, [r7, #0]
 8002a36:	fbb2 f3f3 	udiv	r3, r2, r3
 8002a3a:	4a07      	ldr	r2, [pc, #28]	; (8002a58 <LL_InitTick+0x30>)
 8002a3c:	3b01      	subs	r3, #1
 8002a3e:	6053      	str	r3, [r2, #4]
  SysTick->VAL   = 0UL;                                       /* Load the SysTick Counter Value */
 8002a40:	4b05      	ldr	r3, [pc, #20]	; (8002a58 <LL_InitTick+0x30>)
 8002a42:	2200      	movs	r2, #0
 8002a44:	609a      	str	r2, [r3, #8]
  SysTick->CTRL  = SysTick_CTRL_CLKSOURCE_Msk |
 8002a46:	4b04      	ldr	r3, [pc, #16]	; (8002a58 <LL_InitTick+0x30>)
 8002a48:	2205      	movs	r2, #5
 8002a4a:	601a      	str	r2, [r3, #0]
                   SysTick_CTRL_ENABLE_Msk;                   /* Enable the Systick Timer */
}
 8002a4c:	bf00      	nop
 8002a4e:	370c      	adds	r7, #12
 8002a50:	46bd      	mov	sp, r7
 8002a52:	f85d 7b04 	ldr.w	r7, [sp], #4
 8002a56:	4770      	bx	lr
 8002a58:	e000e010 	.word	0xe000e010

08002a5c <LL_Init1msTick>:
  * @param  HCLKFrequency HCLK frequency in Hz
  * @note   HCLK frequency can be calculated thanks to RCC helper macro or function @ref LL_RCC_GetSystemClocksFreq
  * @retval None
  */
void LL_Init1msTick(uint32_t HCLKFrequency)
{
 8002a5c:	b580      	push	{r7, lr}
 8002a5e:	b082      	sub	sp, #8
 8002a60:	af00      	add	r7, sp, #0
 8002a62:	6078      	str	r0, [r7, #4]
  /* Use frequency provided in argument */
  LL_InitTick(HCLKFrequency, 1000U);
 8002a64:	f44f 717a 	mov.w	r1, #1000	; 0x3e8
 8002a68:	6878      	ldr	r0, [r7, #4]
 8002a6a:	f7ff ffdd 	bl	8002a28 <LL_InitTick>
}
 8002a6e:	bf00      	nop
 8002a70:	3708      	adds	r7, #8
 8002a72:	46bd      	mov	sp, r7
 8002a74:	bd80      	pop	{r7, pc}
	...

08002a78 <LL_mDelay>:
  *         will configure Systick to 1ms
  * @param  Delay specifies the delay time length, in milliseconds.
  * @retval None
  */
void LL_mDelay(uint32_t Delay)
{
 8002a78:	b480      	push	{r7}
 8002a7a:	b085      	sub	sp, #20
 8002a7c:	af00      	add	r7, sp, #0
 8002a7e:	6078      	str	r0, [r7, #4]
  __IO uint32_t  tmp = SysTick->CTRL;  /* Clear the COUNTFLAG first */
 8002a80:	4b0f      	ldr	r3, [pc, #60]	; (8002ac0 <LL_mDelay+0x48>)
 8002a82:	681b      	ldr	r3, [r3, #0]
 8002a84:	60fb      	str	r3, [r7, #12]
  /* Add this code to indicate that local variable is not used */
  ((void)tmp);
 8002a86:	68fb      	ldr	r3, [r7, #12]

  /* Add a period to guaranty minimum wait */
  if (Delay < LL_MAX_DELAY)
 8002a88:	687b      	ldr	r3, [r7, #4]
 8002a8a:	f1b3 3fff 	cmp.w	r3, #4294967295
 8002a8e:	d00c      	beq.n	8002aaa <LL_mDelay+0x32>
  {
    Delay++;
 8002a90:	687b      	ldr	r3, [r7, #4]
 8002a92:	3301      	adds	r3, #1
 8002a94:	607b      	str	r3, [r7, #4]
  }

  while (Delay)
 8002a96:	e008      	b.n	8002aaa <LL_mDelay+0x32>
  {
    if ((SysTick->CTRL & SysTick_CTRL_COUNTFLAG_Msk) != 0U)
 8002a98:	4b09      	ldr	r3, [pc, #36]	; (8002ac0 <LL_mDelay+0x48>)
 8002a9a:	681b      	ldr	r3, [r3, #0]
 8002a9c:	f403 3380 	and.w	r3, r3, #65536	; 0x10000
 8002aa0:	2b00      	cmp	r3, #0
 8002aa2:	d002      	beq.n	8002aaa <LL_mDelay+0x32>
    {
      Delay--;
 8002aa4:	687b      	ldr	r3, [r7, #4]
 8002aa6:	3b01      	subs	r3, #1
 8002aa8:	607b      	str	r3, [r7, #4]
  while (Delay)
 8002aaa:	687b      	ldr	r3, [r7, #4]
 8002aac:	2b00      	cmp	r3, #0
 8002aae:	d1f3      	bne.n	8002a98 <LL_mDelay+0x20>
    }
  }
}
 8002ab0:	bf00      	nop
 8002ab2:	bf00      	nop
 8002ab4:	3714      	adds	r7, #20
 8002ab6:	46bd      	mov	sp, r7
 8002ab8:	f85d 7b04 	ldr.w	r7, [sp], #4
 8002abc:	4770      	bx	lr
 8002abe:	bf00      	nop
 8002ac0:	e000e010 	.word	0xe000e010

08002ac4 <LL_SetSystemCoreClock>:
  * @note   Variable can be calculated also through SystemCoreClockUpdate function.
  * @param  HCLKFrequency HCLK frequency in Hz (can be calculated thanks to RCC helper macro)
  * @retval None
  */
void LL_SetSystemCoreClock(uint32_t HCLKFrequency)
{
 8002ac4:	b480      	push	{r7}
 8002ac6:	b083      	sub	sp, #12
 8002ac8:	af00      	add	r7, sp, #0
 8002aca:	6078      	str	r0, [r7, #4]
  /* HCLK clock frequency */
  SystemCoreClock = HCLKFrequency;
 8002acc:	4a04      	ldr	r2, [pc, #16]	; (8002ae0 <LL_SetSystemCoreClock+0x1c>)
 8002ace:	687b      	ldr	r3, [r7, #4]
 8002ad0:	6013      	str	r3, [r2, #0]
}
 8002ad2:	bf00      	nop
 8002ad4:	370c      	adds	r7, #12
 8002ad6:	46bd      	mov	sp, r7
 8002ad8:	f85d 7b04 	ldr.w	r7, [sp], #4
 8002adc:	4770      	bx	lr
 8002ade:	bf00      	nop
 8002ae0:	20000004 	.word	0x20000004

08002ae4 <__libc_init_array>:
 8002ae4:	b570      	push	{r4, r5, r6, lr}
 8002ae6:	4d0d      	ldr	r5, [pc, #52]	; (8002b1c <__libc_init_array+0x38>)
 8002ae8:	4c0d      	ldr	r4, [pc, #52]	; (8002b20 <__libc_init_array+0x3c>)
 8002aea:	1b64      	subs	r4, r4, r5
 8002aec:	10a4      	asrs	r4, r4, #2
 8002aee:	2600      	movs	r6, #0
 8002af0:	42a6      	cmp	r6, r4
 8002af2:	d109      	bne.n	8002b08 <__libc_init_array+0x24>
 8002af4:	4d0b      	ldr	r5, [pc, #44]	; (8002b24 <__libc_init_array+0x40>)
 8002af6:	4c0c      	ldr	r4, [pc, #48]	; (8002b28 <__libc_init_array+0x44>)
 8002af8:	f000 f820 	bl	8002b3c <_init>
 8002afc:	1b64      	subs	r4, r4, r5
 8002afe:	10a4      	asrs	r4, r4, #2
 8002b00:	2600      	movs	r6, #0
 8002b02:	42a6      	cmp	r6, r4
 8002b04:	d105      	bne.n	8002b12 <__libc_init_array+0x2e>
 8002b06:	bd70      	pop	{r4, r5, r6, pc}
 8002b08:	f855 3b04 	ldr.w	r3, [r5], #4
 8002b0c:	4798      	blx	r3
 8002b0e:	3601      	adds	r6, #1
 8002b10:	e7ee      	b.n	8002af0 <__libc_init_array+0xc>
 8002b12:	f855 3b04 	ldr.w	r3, [r5], #4
 8002b16:	4798      	blx	r3
 8002b18:	3601      	adds	r6, #1
 8002b1a:	e7f2      	b.n	8002b02 <__libc_init_array+0x1e>
 8002b1c:	08002bd8 	.word	0x08002bd8
 8002b20:	08002bd8 	.word	0x08002bd8
 8002b24:	08002bd8 	.word	0x08002bd8
 8002b28:	08002bdc 	.word	0x08002bdc

08002b2c <memset>:
 8002b2c:	4402      	add	r2, r0
 8002b2e:	4603      	mov	r3, r0
 8002b30:	4293      	cmp	r3, r2
 8002b32:	d100      	bne.n	8002b36 <memset+0xa>
 8002b34:	4770      	bx	lr
 8002b36:	f803 1b01 	strb.w	r1, [r3], #1
 8002b3a:	e7f9      	b.n	8002b30 <memset+0x4>

08002b3c <_init>:
 8002b3c:	b5f8      	push	{r3, r4, r5, r6, r7, lr}
 8002b3e:	bf00      	nop
 8002b40:	bcf8      	pop	{r3, r4, r5, r6, r7}
 8002b42:	bc08      	pop	{r3}
 8002b44:	469e      	mov	lr, r3
 8002b46:	4770      	bx	lr

08002b48 <_fini>:
 8002b48:	b5f8      	push	{r3, r4, r5, r6, r7, lr}
 8002b4a:	bf00      	nop
 8002b4c:	bcf8      	pop	{r3, r4, r5, r6, r7}
 8002b4e:	bc08      	pop	{r3}
 8002b50:	469e      	mov	lr, r3
 8002b52:	4770      	bx	lr
